(dp0
S'user.schae.SkimSep19DAOD.361516.EXOT5_EXT0'
p1
(lp2
S'root://fax.mwt2.org:1094//pnfs/uchicago.edu/atlaslocalgroupdisk/rucio/user/schae/46/ef/user.schae.15490781.EXT0._000001.DAOD_EXOT5.test.pool.root'
p3
aS'root://fax.mwt2.org:1094//pnfs/uchicago.edu/atlaslocalgroupdisk/rucio/user/schae/a0/90/user.schae.15490781.EXT0._000002.DAOD_EXOT5.test.pool.root'
p4
aS'root://fax.mwt2.org:1094//pnfs/uchicago.edu/atlaslocalgroupdisk/rucio/user/schae/60/cf/user.schae.15490781.EXT0._000003.DAOD_EXOT5.test.pool.root'
p5
aS'root://fax.mwt2.org:1094//pnfs/uchicago.edu/atlaslocalgroupdisk/rucio/user/schae/17/a8/user.schae.15490781.EXT0._000004.DAOD_EXOT5.test.pool.root'
p6
aS'root://fax.mwt2.org:1094//pnfs/uchicago.edu/atlaslocalgroupdisk/rucio/user/schae/fb/d5/user.schae.15490781.EXT0._000005.DAOD_EXOT5.test.pool.root'
p7
aS'root://fax.mwt2.org:1094//pnfs/uchicago.edu/atlaslocalgroupdisk/rucio/user/schae/d1/74/user.schae.15490781.EXT0._000006.DAOD_EXOT5.test.pool.root'
p8
aS'root://fax.mwt2.org:1094//pnfs/uchicago.edu/atlaslocalgroupdisk/rucio/user/schae/cd/0a/user.schae.15490781.EXT0._000007.DAOD_EXOT5.test.pool.root'
p9
aS'root://fax.mwt2.org:1094//pnfs/uchicago.edu/atlaslocalgroupdisk/rucio/user/schae/7d/a7/user.schae.15490781.EXT0._000008.DAOD_EXOT5.test.pool.root'
p10
aS'root://fax.mwt2.org:1094//pnfs/uchicago.edu/atlaslocalgroupdisk/rucio/user/schae/2a/eb/user.schae.15490781.EXT0._000009.DAOD_EXOT5.test.pool.root'
p11
aS'root://fax.mwt2.org:1094//pnfs/uchicago.edu/atlaslocalgroupdisk/rucio/user/schae/7a/81/user.schae.15490781.EXT0._000010.DAOD_EXOT5.test.pool.root'
p12
aS'root://fax.mwt2.org:1094//pnfs/uchicago.edu/atlaslocalgroupdisk/rucio/user/schae/3f/8d/user.schae.15490781.EXT0._000011.DAOD_EXOT5.test.pool.root'
p13
aS'root://fax.mwt2.org:1094//pnfs/uchicago.edu/atlaslocalgroupdisk/rucio/user/schae/75/c2/user.schae.15490781.EXT0._000012.DAOD_EXOT5.test.pool.root'
p14
aS'root://fax.mwt2.org:1094//pnfs/uchicago.edu/atlaslocalgroupdisk/rucio/user/schae/0c/dd/user.schae.15490781.EXT0._000013.DAOD_EXOT5.test.pool.root'
p15
aS'root://fax.mwt2.org:1094//pnfs/uchicago.edu/atlaslocalgroupdisk/rucio/user/schae/49/d7/user.schae.15490781.EXT0._000014.DAOD_EXOT5.test.pool.root'
p16
aS'root://fax.mwt2.org:1094//pnfs/uchicago.edu/atlaslocalgroupdisk/rucio/user/schae/e9/08/user.schae.15490781.EXT0._000015.DAOD_EXOT5.test.pool.root'
p17
aS'root://fax.mwt2.org:1094//pnfs/uchicago.edu/atlaslocalgroupdisk/rucio/user/schae/82/89/user.schae.15490781.EXT0._000016.DAOD_EXOT5.test.pool.root'
p18
aS'root://fax.mwt2.org:1094//pnfs/uchicago.edu/atlaslocalgroupdisk/rucio/user/schae/f4/81/user.schae.15490781.EXT0._000017.DAOD_EXOT5.test.pool.root'
p19
aS'root://fax.mwt2.org:1094//pnfs/uchicago.edu/atlaslocalgroupdisk/rucio/user/schae/d7/2e/user.schae.15490781.EXT0._000019.DAOD_EXOT5.test.pool.root'
p20
aS'root://fax.mwt2.org:1094//pnfs/uchicago.edu/atlaslocalgroupdisk/rucio/user/schae/3d/4e/user.schae.15490781.EXT0._000020.DAOD_EXOT5.test.pool.root'
p21
aS'root://fax.mwt2.org:1094//pnfs/uchicago.edu/atlaslocalgroupdisk/rucio/user/schae/0c/9c/user.schae.15490781.EXT0._000021.DAOD_EXOT5.test.pool.root'
p22
aS'root://fax.mwt2.org:1094//pnfs/uchicago.edu/atlaslocalgroupdisk/rucio/user/schae/14/30/user.schae.15490781.EXT0._000022.DAOD_EXOT5.test.pool.root'
p23
aS'root://fax.mwt2.org:1094//pnfs/uchicago.edu/atlaslocalgroupdisk/rucio/user/schae/11/1f/user.schae.15490781.EXT0._000023.DAOD_EXOT5.test.pool.root'
p24
aS'root://fax.mwt2.org:1094//pnfs/uchicago.edu/atlaslocalgroupdisk/rucio/user/schae/2f/5a/user.schae.15490781.EXT0._000024.DAOD_EXOT5.test.pool.root'
p25
aS'root://fax.mwt2.org:1094//pnfs/uchicago.edu/atlaslocalgroupdisk/rucio/user/schae/a1/b7/user.schae.15490781.EXT0._000025.DAOD_EXOT5.test.pool.root'
p26
aS'root://fax.mwt2.org:1094//pnfs/uchicago.edu/atlaslocalgroupdisk/rucio/user/schae/56/5a/user.schae.15490781.EXT0._000026.DAOD_EXOT5.test.pool.root'
p27
aS'root://fax.mwt2.org:1094//pnfs/uchicago.edu/atlaslocalgroupdisk/rucio/user/schae/24/cc/user.schae.15490781.EXT0._000027.DAOD_EXOT5.test.pool.root'
p28
aS'root://fax.mwt2.org:1094//pnfs/uchicago.edu/atlaslocalgroupdisk/rucio/user/schae/b8/b0/user.schae.15490781.EXT0._000028.DAOD_EXOT5.test.pool.root'
p29
aS'root://fax.mwt2.org:1094//pnfs/uchicago.edu/atlaslocalgroupdisk/rucio/user/schae/c2/4a/user.schae.15490781.EXT0._000029.DAOD_EXOT5.test.pool.root'
p30
aS'root://fax.mwt2.org:1094//pnfs/uchicago.edu/atlaslocalgroupdisk/rucio/user/schae/32/bb/user.schae.15490781.EXT0._000030.DAOD_EXOT5.test.pool.root'
p31
aS'root://fax.mwt2.org:1094//pnfs/uchicago.edu/atlaslocalgroupdisk/rucio/user/schae/66/41/user.schae.15490781.EXT0._000031.DAOD_EXOT5.test.pool.root'
p32
aS'root://fax.mwt2.org:1094//pnfs/uchicago.edu/atlaslocalgroupdisk/rucio/user/schae/97/d2/user.schae.15490781.EXT0._000032.DAOD_EXOT5.test.pool.root'
p33
aS'root://fax.mwt2.org:1094//pnfs/uchicago.edu/atlaslocalgroupdisk/rucio/user/schae/52/fe/user.schae.15490781.EXT0._000033.DAOD_EXOT5.test.pool.root'
p34
aS'root://fax.mwt2.org:1094//pnfs/uchicago.edu/atlaslocalgroupdisk/rucio/user/schae/22/a9/user.schae.15490781.EXT0._000034.DAOD_EXOT5.test.pool.root'
p35
aS'root://fax.mwt2.org:1094//pnfs/uchicago.edu/atlaslocalgroupdisk/rucio/user/schae/ed/0c/user.schae.15490781.EXT0._000035.DAOD_EXOT5.test.pool.root'
p36
aS'root://fax.mwt2.org:1094//pnfs/uchicago.edu/atlaslocalgroupdisk/rucio/user/schae/3c/7e/user.schae.15490781.EXT0._000036.DAOD_EXOT5.test.pool.root'
p37
aS'root://fax.mwt2.org:1094//pnfs/uchicago.edu/atlaslocalgroupdisk/rucio/user/schae/bf/53/user.schae.15490781.EXT0._000037.DAOD_EXOT5.test.pool.root'
p38
aS'root://fax.mwt2.org:1094//pnfs/uchicago.edu/atlaslocalgroupdisk/rucio/user/schae/87/65/user.schae.15490781.EXT0._000038.DAOD_EXOT5.test.pool.root'
p39
aS'root://fax.mwt2.org:1094//pnfs/uchicago.edu/atlaslocalgroupdisk/rucio/user/schae/5e/02/user.schae.15490781.EXT0._000039.DAOD_EXOT5.test.pool.root'
p40
aS'root://fax.mwt2.org:1094//pnfs/uchicago.edu/atlaslocalgroupdisk/rucio/user/schae/da/5f/user.schae.15490781.EXT0._000041.DAOD_EXOT5.test.pool.root'
p41
aS'root://fax.mwt2.org:1094//pnfs/uchicago.edu/atlaslocalgroupdisk/rucio/user/schae/f3/7e/user.schae.15490781.EXT0._000042.DAOD_EXOT5.test.pool.root'
p42
aS'root://fax.mwt2.org:1094//pnfs/uchicago.edu/atlaslocalgroupdisk/rucio/user/schae/9f/fe/user.schae.15490781.EXT0._000043.DAOD_EXOT5.test.pool.root'
p43
aS'root://fax.mwt2.org:1094//pnfs/uchicago.edu/atlaslocalgroupdisk/rucio/user/schae/54/cc/user.schae.15490781.EXT0._000044.DAOD_EXOT5.test.pool.root'
p44
aS'root://fax.mwt2.org:1094//pnfs/uchicago.edu/atlaslocalgroupdisk/rucio/user/schae/46/48/user.schae.15490781.EXT0._000045.DAOD_EXOT5.test.pool.root'
p45
aS'root://fax.mwt2.org:1094//pnfs/uchicago.edu/atlaslocalgroupdisk/rucio/user/schae/4f/23/user.schae.15490781.EXT0._000046.DAOD_EXOT5.test.pool.root'
p46
aS'root://fax.mwt2.org:1094//pnfs/uchicago.edu/atlaslocalgroupdisk/rucio/user/schae/1f/89/user.schae.15490781.EXT0._000047.DAOD_EXOT5.test.pool.root'
p47
aS'root://fax.mwt2.org:1094//pnfs/uchicago.edu/atlaslocalgroupdisk/rucio/user/schae/67/fe/user.schae.15490781.EXT0._000048.DAOD_EXOT5.test.pool.root'
p48
aS'root://fax.mwt2.org:1094//pnfs/uchicago.edu/atlaslocalgroupdisk/rucio/user/schae/51/a4/user.schae.15490781.EXT0._000049.DAOD_EXOT5.test.pool.root'
p49
aS'root://fax.mwt2.org:1094//pnfs/uchicago.edu/atlaslocalgroupdisk/rucio/user/schae/e1/39/user.schae.15490781.EXT0._000050.DAOD_EXOT5.test.pool.root'
p50
aS'root://fax.mwt2.org:1094//pnfs/uchicago.edu/atlaslocalgroupdisk/rucio/user/schae/d6/e0/user.schae.15490781.EXT0._000051.DAOD_EXOT5.test.pool.root'
p51
aS'root://fax.mwt2.org:1094//pnfs/uchicago.edu/atlaslocalgroupdisk/rucio/user/schae/a7/81/user.schae.15490781.EXT0._000052.DAOD_EXOT5.test.pool.root'
p52
aS'root://fax.mwt2.org:1094//pnfs/uchicago.edu/atlaslocalgroupdisk/rucio/user/schae/b3/ea/user.schae.15490781.EXT0._000053.DAOD_EXOT5.test.pool.root'
p53
aS'root://fax.mwt2.org:1094//pnfs/uchicago.edu/atlaslocalgroupdisk/rucio/user/schae/d5/b3/user.schae.15490781.EXT0._000054.DAOD_EXOT5.test.pool.root'
p54
aS'root://fax.mwt2.org:1094//pnfs/uchicago.edu/atlaslocalgroupdisk/rucio/user/schae/a6/45/user.schae.15490781.EXT0._000055.DAOD_EXOT5.test.pool.root'
p55
aS'root://fax.mwt2.org:1094//pnfs/uchicago.edu/atlaslocalgroupdisk/rucio/user/schae/09/ee/user.schae.15490781.EXT0._000056.DAOD_EXOT5.test.pool.root'
p56
aS'root://fax.mwt2.org:1094//pnfs/uchicago.edu/atlaslocalgroupdisk/rucio/user/schae/c9/dd/user.schae.15490781.EXT0._000057.DAOD_EXOT5.test.pool.root'
p57
aS'root://fax.mwt2.org:1094//pnfs/uchicago.edu/atlaslocalgroupdisk/rucio/user/schae/e6/00/user.schae.15490781.EXT0._000058.DAOD_EXOT5.test.pool.root'
p58
aS'root://fax.mwt2.org:1094//pnfs/uchicago.edu/atlaslocalgroupdisk/rucio/user/schae/c9/d7/user.schae.15490781.EXT0._000059.DAOD_EXOT5.test.pool.root'
p59
aS'root://fax.mwt2.org:1094//pnfs/uchicago.edu/atlaslocalgroupdisk/rucio/user/schae/a3/b6/user.schae.15490781.EXT0._000060.DAOD_EXOT5.test.pool.root'
p60
aS'root://fax.mwt2.org:1094//pnfs/uchicago.edu/atlaslocalgroupdisk/rucio/user/schae/bb/3b/user.schae.15490781.EXT0._000061.DAOD_EXOT5.test.pool.root'
p61
aS'root://fax.mwt2.org:1094//pnfs/uchicago.edu/atlaslocalgroupdisk/rucio/user/schae/05/85/user.schae.15490781.EXT0._000062.DAOD_EXOT5.test.pool.root'
p62
aS'root://fax.mwt2.org:1094//pnfs/uchicago.edu/atlaslocalgroupdisk/rucio/user/schae/0f/3a/user.schae.15490781.EXT0._000063.DAOD_EXOT5.test.pool.root'
p63
aS'root://fax.mwt2.org:1094//pnfs/uchicago.edu/atlaslocalgroupdisk/rucio/user/schae/33/da/user.schae.15490781.EXT0._000064.DAOD_EXOT5.test.pool.root'
p64
aS'root://fax.mwt2.org:1094//pnfs/uchicago.edu/atlaslocalgroupdisk/rucio/user/schae/82/cb/user.schae.15490781.EXT0._000065.DAOD_EXOT5.test.pool.root'
p65
aS'root://fax.mwt2.org:1094//pnfs/uchicago.edu/atlaslocalgroupdisk/rucio/user/schae/d2/9d/user.schae.15490781.EXT0._000066.DAOD_EXOT5.test.pool.root'
p66
aS'root://fax.mwt2.org:1094//pnfs/uchicago.edu/atlaslocalgroupdisk/rucio/user/schae/41/df/user.schae.15490781.EXT0._000067.DAOD_EXOT5.test.pool.root'
p67
aS'root://fax.mwt2.org:1094//pnfs/uchicago.edu/atlaslocalgroupdisk/rucio/user/schae/71/98/user.schae.15490781.EXT0._000068.DAOD_EXOT5.test.pool.root'
p68
aS'root://fax.mwt2.org:1094//pnfs/uchicago.edu/atlaslocalgroupdisk/rucio/user/schae/a1/52/user.schae.15490781.EXT0._000069.DAOD_EXOT5.test.pool.root'
p69
aS'root://fax.mwt2.org:1094//pnfs/uchicago.edu/atlaslocalgroupdisk/rucio/user/schae/41/f2/user.schae.15490781.EXT0._000070.DAOD_EXOT5.test.pool.root'
p70
aS'root://fax.mwt2.org:1094//pnfs/uchicago.edu/atlaslocalgroupdisk/rucio/user/schae/1f/3a/user.schae.15490781.EXT0._000071.DAOD_EXOT5.test.pool.root'
p71
aS'root://fax.mwt2.org:1094//pnfs/uchicago.edu/atlaslocalgroupdisk/rucio/user/schae/3c/ad/user.schae.15490781.EXT0._000072.DAOD_EXOT5.test.pool.root'
p72
aS'root://fax.mwt2.org:1094//pnfs/uchicago.edu/atlaslocalgroupdisk/rucio/user/schae/56/62/user.schae.15490781.EXT0._000073.DAOD_EXOT5.test.pool.root'
p73
aS'root://fax.mwt2.org:1094//pnfs/uchicago.edu/atlaslocalgroupdisk/rucio/user/schae/73/a1/user.schae.15490781.EXT0._000074.DAOD_EXOT5.test.pool.root'
p74
aS'root://fax.mwt2.org:1094//pnfs/uchicago.edu/atlaslocalgroupdisk/rucio/user/schae/b7/4e/user.schae.15490781.EXT0._000075.DAOD_EXOT5.test.pool.root'
p75
aS'root://fax.mwt2.org:1094//pnfs/uchicago.edu/atlaslocalgroupdisk/rucio/user/schae/ba/e7/user.schae.15490781.EXT0._000076.DAOD_EXOT5.test.pool.root'
p76
aS'root://fax.mwt2.org:1094//pnfs/uchicago.edu/atlaslocalgroupdisk/rucio/user/schae/f3/3a/user.schae.15490781.EXT0._000077.DAOD_EXOT5.test.pool.root'
p77
aS'root://fax.mwt2.org:1094//pnfs/uchicago.edu/atlaslocalgroupdisk/rucio/user/schae/d1/05/user.schae.15490781.EXT0._000078.DAOD_EXOT5.test.pool.root'
p78
aS'root://fax.mwt2.org:1094//pnfs/uchicago.edu/atlaslocalgroupdisk/rucio/user/schae/27/45/user.schae.15490781.EXT0._000079.DAOD_EXOT5.test.pool.root'
p79
aS'root://fax.mwt2.org:1094//pnfs/uchicago.edu/atlaslocalgroupdisk/rucio/user/schae/69/e2/user.schae.15490781.EXT0._000080.DAOD_EXOT5.test.pool.root'
p80
aS'root://fax.mwt2.org:1094//pnfs/uchicago.edu/atlaslocalgroupdisk/rucio/user/schae/db/77/user.schae.15490781.EXT0._000081.DAOD_EXOT5.test.pool.root'
p81
aS'root://fax.mwt2.org:1094//pnfs/uchicago.edu/atlaslocalgroupdisk/rucio/user/schae/c1/70/user.schae.15490781.EXT0._000082.DAOD_EXOT5.test.pool.root'
p82
aS'root://fax.mwt2.org:1094//pnfs/uchicago.edu/atlaslocalgroupdisk/rucio/user/schae/fd/61/user.schae.15490781.EXT0._000083.DAOD_EXOT5.test.pool.root'
p83
aS'root://fax.mwt2.org:1094//pnfs/uchicago.edu/atlaslocalgroupdisk/rucio/user/schae/6d/79/user.schae.15490781.EXT0._000084.DAOD_EXOT5.test.pool.root'
p84
aS'root://fax.mwt2.org:1094//pnfs/uchicago.edu/atlaslocalgroupdisk/rucio/user/schae/27/53/user.schae.15490781.EXT0._000085.DAOD_EXOT5.test.pool.root'
p85
aS'root://fax.mwt2.org:1094//pnfs/uchicago.edu/atlaslocalgroupdisk/rucio/user/schae/87/93/user.schae.15490781.EXT0._000086.DAOD_EXOT5.test.pool.root'
p86
aS'root://fax.mwt2.org:1094//pnfs/uchicago.edu/atlaslocalgroupdisk/rucio/user/schae/f3/12/user.schae.15490781.EXT0._000087.DAOD_EXOT5.test.pool.root'
p87
aS'root://fax.mwt2.org:1094//pnfs/uchicago.edu/atlaslocalgroupdisk/rucio/user/schae/8e/dd/user.schae.15490781.EXT0._000088.DAOD_EXOT5.test.pool.root'
p88
aS'root://fax.mwt2.org:1094//pnfs/uchicago.edu/atlaslocalgroupdisk/rucio/user/schae/25/4c/user.schae.15490781.EXT0._000089.DAOD_EXOT5.test.pool.root'
p89
aS'root://fax.mwt2.org:1094//pnfs/uchicago.edu/atlaslocalgroupdisk/rucio/user/schae/3e/f7/user.schae.15490781.EXT0._000090.DAOD_EXOT5.test.pool.root'
p90
aS'root://fax.mwt2.org:1094//pnfs/uchicago.edu/atlaslocalgroupdisk/rucio/user/schae/c7/97/user.schae.15490781.EXT0._000091.DAOD_EXOT5.test.pool.root'
p91
aS'root://fax.mwt2.org:1094//pnfs/uchicago.edu/atlaslocalgroupdisk/rucio/user/schae/31/d5/user.schae.15490781.EXT0._000092.DAOD_EXOT5.test.pool.root'
p92
aS'root://fax.mwt2.org:1094//pnfs/uchicago.edu/atlaslocalgroupdisk/rucio/user/schae/d4/7c/user.schae.15490781.EXT0._000093.DAOD_EXOT5.test.pool.root'
p93
asS'user.schae.SkimSep19DAOD.361519.EXOT5_EXT0'
p94
(lp95
S'root://fax.mwt2.org:1094//pnfs/uchicago.edu/atlaslocalgroupdisk/rucio/user/schae/cd/c8/user.schae.15490820.EXT0._000001.DAOD_EXOT5.test.pool.root'
p96
aS'root://fax.mwt2.org:1094//pnfs/uchicago.edu/atlaslocalgroupdisk/rucio/user/schae/d5/a6/user.schae.15490820.EXT0._000002.DAOD_EXOT5.test.pool.root'
p97
aS'root://fax.mwt2.org:1094//pnfs/uchicago.edu/atlaslocalgroupdisk/rucio/user/schae/59/5a/user.schae.15490820.EXT0._000003.DAOD_EXOT5.test.pool.root'
p98
aS'root://fax.mwt2.org:1094//pnfs/uchicago.edu/atlaslocalgroupdisk/rucio/user/schae/02/c8/user.schae.15490820.EXT0._000004.DAOD_EXOT5.test.pool.root'
p99
aS'root://fax.mwt2.org:1094//pnfs/uchicago.edu/atlaslocalgroupdisk/rucio/user/schae/37/3c/user.schae.15490820.EXT0._000005.DAOD_EXOT5.test.pool.root'
p100
aS'root://fax.mwt2.org:1094//pnfs/uchicago.edu/atlaslocalgroupdisk/rucio/user/schae/99/1e/user.schae.15490820.EXT0._000006.DAOD_EXOT5.test.pool.root'
p101
aS'root://fax.mwt2.org:1094//pnfs/uchicago.edu/atlaslocalgroupdisk/rucio/user/schae/29/f2/user.schae.15490820.EXT0._000007.DAOD_EXOT5.test.pool.root'
p102
aS'root://fax.mwt2.org:1094//pnfs/uchicago.edu/atlaslocalgroupdisk/rucio/user/schae/6b/ab/user.schae.15490820.EXT0._000008.DAOD_EXOT5.test.pool.root'
p103
aS'root://fax.mwt2.org:1094//pnfs/uchicago.edu/atlaslocalgroupdisk/rucio/user/schae/93/83/user.schae.15490820.EXT0._000009.DAOD_EXOT5.test.pool.root'
p104
aS'root://fax.mwt2.org:1094//pnfs/uchicago.edu/atlaslocalgroupdisk/rucio/user/schae/5a/32/user.schae.15490820.EXT0._000010.DAOD_EXOT5.test.pool.root'
p105
aS'root://fax.mwt2.org:1094//pnfs/uchicago.edu/atlaslocalgroupdisk/rucio/user/schae/80/c2/user.schae.15490820.EXT0._000011.DAOD_EXOT5.test.pool.root'
p106
aS'root://fax.mwt2.org:1094//pnfs/uchicago.edu/atlaslocalgroupdisk/rucio/user/schae/1f/9c/user.schae.15490820.EXT0._000012.DAOD_EXOT5.test.pool.root'
p107
aS'root://fax.mwt2.org:1094//pnfs/uchicago.edu/atlaslocalgroupdisk/rucio/user/schae/dc/88/user.schae.15490820.EXT0._000013.DAOD_EXOT5.test.pool.root'
p108
aS'root://fax.mwt2.org:1094//pnfs/uchicago.edu/atlaslocalgroupdisk/rucio/user/schae/8d/0e/user.schae.15490820.EXT0._000014.DAOD_EXOT5.test.pool.root'
p109
aS'root://fax.mwt2.org:1094//pnfs/uchicago.edu/atlaslocalgroupdisk/rucio/user/schae/ed/a8/user.schae.15490820.EXT0._000015.DAOD_EXOT5.test.pool.root'
p110
aS'root://fax.mwt2.org:1094//pnfs/uchicago.edu/atlaslocalgroupdisk/rucio/user/schae/aa/74/user.schae.15490820.EXT0._000016.DAOD_EXOT5.test.pool.root'
p111
aS'root://fax.mwt2.org:1094//pnfs/uchicago.edu/atlaslocalgroupdisk/rucio/user/schae/e3/e5/user.schae.15490820.EXT0._000017.DAOD_EXOT5.test.pool.root'
p112
aS'root://fax.mwt2.org:1094//pnfs/uchicago.edu/atlaslocalgroupdisk/rucio/user/schae/81/3d/user.schae.15490820.EXT0._000018.DAOD_EXOT5.test.pool.root'
p113
aS'root://fax.mwt2.org:1094//pnfs/uchicago.edu/atlaslocalgroupdisk/rucio/user/schae/e9/83/user.schae.15490820.EXT0._000019.DAOD_EXOT5.test.pool.root'
p114
aS'root://fax.mwt2.org:1094//pnfs/uchicago.edu/atlaslocalgroupdisk/rucio/user/schae/23/14/user.schae.15490820.EXT0._000020.DAOD_EXOT5.test.pool.root'
p115
aS'root://fax.mwt2.org:1094//pnfs/uchicago.edu/atlaslocalgroupdisk/rucio/user/schae/e9/fe/user.schae.15490820.EXT0._000021.DAOD_EXOT5.test.pool.root'
p116
aS'root://fax.mwt2.org:1094//pnfs/uchicago.edu/atlaslocalgroupdisk/rucio/user/schae/67/7a/user.schae.15490820.EXT0._000022.DAOD_EXOT5.test.pool.root'
p117
aS'root://fax.mwt2.org:1094//pnfs/uchicago.edu/atlaslocalgroupdisk/rucio/user/schae/cb/c9/user.schae.15490820.EXT0._000023.DAOD_EXOT5.test.pool.root'
p118
aS'root://fax.mwt2.org:1094//pnfs/uchicago.edu/atlaslocalgroupdisk/rucio/user/schae/90/72/user.schae.15490820.EXT0._000024.DAOD_EXOT5.test.pool.root'
p119
aS'root://fax.mwt2.org:1094//pnfs/uchicago.edu/atlaslocalgroupdisk/rucio/user/schae/9b/1a/user.schae.15490820.EXT0._000025.DAOD_EXOT5.test.pool.root'
p120
aS'root://fax.mwt2.org:1094//pnfs/uchicago.edu/atlaslocalgroupdisk/rucio/user/schae/25/0a/user.schae.15490820.EXT0._000026.DAOD_EXOT5.test.pool.root'
p121
aS'root://fax.mwt2.org:1094//pnfs/uchicago.edu/atlaslocalgroupdisk/rucio/user/schae/f1/bb/user.schae.15490820.EXT0._000027.DAOD_EXOT5.test.pool.root'
p122
aS'root://fax.mwt2.org:1094//pnfs/uchicago.edu/atlaslocalgroupdisk/rucio/user/schae/78/a5/user.schae.15490820.EXT0._000028.DAOD_EXOT5.test.pool.root'
p123
aS'root://fax.mwt2.org:1094//pnfs/uchicago.edu/atlaslocalgroupdisk/rucio/user/schae/32/ae/user.schae.15490820.EXT0._000029.DAOD_EXOT5.test.pool.root'
p124
aS'root://fax.mwt2.org:1094//pnfs/uchicago.edu/atlaslocalgroupdisk/rucio/user/schae/13/ca/user.schae.15490820.EXT0._000030.DAOD_EXOT5.test.pool.root'
p125
aS'root://fax.mwt2.org:1094//pnfs/uchicago.edu/atlaslocalgroupdisk/rucio/user/schae/a5/ff/user.schae.15490820.EXT0._000031.DAOD_EXOT5.test.pool.root'
p126
aS'root://fax.mwt2.org:1094//pnfs/uchicago.edu/atlaslocalgroupdisk/rucio/user/schae/6b/12/user.schae.15490820.EXT0._000032.DAOD_EXOT5.test.pool.root'
p127
aS'root://fax.mwt2.org:1094//pnfs/uchicago.edu/atlaslocalgroupdisk/rucio/user/schae/61/cf/user.schae.15490820.EXT0._000033.DAOD_EXOT5.test.pool.root'
p128
aS'root://fax.mwt2.org:1094//pnfs/uchicago.edu/atlaslocalgroupdisk/rucio/user/schae/f4/82/user.schae.15490820.EXT0._000034.DAOD_EXOT5.test.pool.root'
p129
aS'root://fax.mwt2.org:1094//pnfs/uchicago.edu/atlaslocalgroupdisk/rucio/user/schae/01/89/user.schae.15490820.EXT0._000035.DAOD_EXOT5.test.pool.root'
p130
aS'root://fax.mwt2.org:1094//pnfs/uchicago.edu/atlaslocalgroupdisk/rucio/user/schae/46/b5/user.schae.15490820.EXT0._000036.DAOD_EXOT5.test.pool.root'
p131
aS'root://fax.mwt2.org:1094//pnfs/uchicago.edu/atlaslocalgroupdisk/rucio/user/schae/aa/e3/user.schae.15490820.EXT0._000037.DAOD_EXOT5.test.pool.root'
p132
aS'root://fax.mwt2.org:1094//pnfs/uchicago.edu/atlaslocalgroupdisk/rucio/user/schae/d4/b6/user.schae.15490820.EXT0._000038.DAOD_EXOT5.test.pool.root'
p133
aS'root://fax.mwt2.org:1094//pnfs/uchicago.edu/atlaslocalgroupdisk/rucio/user/schae/23/cc/user.schae.15490820.EXT0._000039.DAOD_EXOT5.test.pool.root'
p134
aS'root://fax.mwt2.org:1094//pnfs/uchicago.edu/atlaslocalgroupdisk/rucio/user/schae/a8/8a/user.schae.15490820.EXT0._000040.DAOD_EXOT5.test.pool.root'
p135
aS'root://fax.mwt2.org:1094//pnfs/uchicago.edu/atlaslocalgroupdisk/rucio/user/schae/e0/a8/user.schae.15490820.EXT0._000041.DAOD_EXOT5.test.pool.root'
p136
aS'root://fax.mwt2.org:1094//pnfs/uchicago.edu/atlaslocalgroupdisk/rucio/user/schae/5a/9b/user.schae.15490820.EXT0._000043.DAOD_EXOT5.test.pool.root'
p137
asS'user.schae.SkimSep19DAOD.361517.EXOT5_EXT0'
p138
(lp139
S'root://fax.mwt2.org:1094//pnfs/uchicago.edu/atlaslocalgroupdisk/rucio/user/schae/5d/72/user.schae.15490794.EXT0._000001.DAOD_EXOT5.test.pool.root'
p140
aS'root://fax.mwt2.org:1094//pnfs/uchicago.edu/atlaslocalgroupdisk/rucio/user/schae/26/7e/user.schae.15490794.EXT0._000002.DAOD_EXOT5.test.pool.root'
p141
aS'root://fax.mwt2.org:1094//pnfs/uchicago.edu/atlaslocalgroupdisk/rucio/user/schae/5a/9b/user.schae.15490794.EXT0._000003.DAOD_EXOT5.test.pool.root'
p142
aS'root://fax.mwt2.org:1094//pnfs/uchicago.edu/atlaslocalgroupdisk/rucio/user/schae/61/df/user.schae.15490794.EXT0._000004.DAOD_EXOT5.test.pool.root'
p143
aS'root://fax.mwt2.org:1094//pnfs/uchicago.edu/atlaslocalgroupdisk/rucio/user/schae/3e/43/user.schae.15490794.EXT0._000005.DAOD_EXOT5.test.pool.root'
p144
aS'root://fax.mwt2.org:1094//pnfs/uchicago.edu/atlaslocalgroupdisk/rucio/user/schae/56/0e/user.schae.15490794.EXT0._000006.DAOD_EXOT5.test.pool.root'
p145
aS'root://fax.mwt2.org:1094//pnfs/uchicago.edu/atlaslocalgroupdisk/rucio/user/schae/ab/eb/user.schae.15490794.EXT0._000007.DAOD_EXOT5.test.pool.root'
p146
aS'root://fax.mwt2.org:1094//pnfs/uchicago.edu/atlaslocalgroupdisk/rucio/user/schae/f3/68/user.schae.15490794.EXT0._000008.DAOD_EXOT5.test.pool.root'
p147
aS'root://fax.mwt2.org:1094//pnfs/uchicago.edu/atlaslocalgroupdisk/rucio/user/schae/f6/c5/user.schae.15490794.EXT0._000009.DAOD_EXOT5.test.pool.root'
p148
aS'root://fax.mwt2.org:1094//pnfs/uchicago.edu/atlaslocalgroupdisk/rucio/user/schae/ce/ca/user.schae.15490794.EXT0._000010.DAOD_EXOT5.test.pool.root'
p149
aS'root://fax.mwt2.org:1094//pnfs/uchicago.edu/atlaslocalgroupdisk/rucio/user/schae/d2/28/user.schae.15490794.EXT0._000011.DAOD_EXOT5.test.pool.root'
p150
aS'root://fax.mwt2.org:1094//pnfs/uchicago.edu/atlaslocalgroupdisk/rucio/user/schae/97/4e/user.schae.15490794.EXT0._000012.DAOD_EXOT5.test.pool.root'
p151
aS'root://fax.mwt2.org:1094//pnfs/uchicago.edu/atlaslocalgroupdisk/rucio/user/schae/c6/7b/user.schae.15490794.EXT0._000013.DAOD_EXOT5.test.pool.root'
p152
aS'root://fax.mwt2.org:1094//pnfs/uchicago.edu/atlaslocalgroupdisk/rucio/user/schae/65/b8/user.schae.15490794.EXT0._000014.DAOD_EXOT5.test.pool.root'
p153
aS'root://fax.mwt2.org:1094//pnfs/uchicago.edu/atlaslocalgroupdisk/rucio/user/schae/61/2d/user.schae.15490794.EXT0._000015.DAOD_EXOT5.test.pool.root'
p154
aS'root://fax.mwt2.org:1094//pnfs/uchicago.edu/atlaslocalgroupdisk/rucio/user/schae/26/e3/user.schae.15490794.EXT0._000016.DAOD_EXOT5.test.pool.root'
p155
aS'root://fax.mwt2.org:1094//pnfs/uchicago.edu/atlaslocalgroupdisk/rucio/user/schae/9e/3a/user.schae.15490794.EXT0._000017.DAOD_EXOT5.test.pool.root'
p156
aS'root://fax.mwt2.org:1094//pnfs/uchicago.edu/atlaslocalgroupdisk/rucio/user/schae/b6/c3/user.schae.15490794.EXT0._000018.DAOD_EXOT5.test.pool.root'
p157
aS'root://fax.mwt2.org:1094//pnfs/uchicago.edu/atlaslocalgroupdisk/rucio/user/schae/31/80/user.schae.15490794.EXT0._000019.DAOD_EXOT5.test.pool.root'
p158
aS'root://fax.mwt2.org:1094//pnfs/uchicago.edu/atlaslocalgroupdisk/rucio/user/schae/94/35/user.schae.15490794.EXT0._000020.DAOD_EXOT5.test.pool.root'
p159
aS'root://fax.mwt2.org:1094//pnfs/uchicago.edu/atlaslocalgroupdisk/rucio/user/schae/fa/6b/user.schae.15490794.EXT0._000021.DAOD_EXOT5.test.pool.root'
p160
aS'root://fax.mwt2.org:1094//pnfs/uchicago.edu/atlaslocalgroupdisk/rucio/user/schae/5e/34/user.schae.15490794.EXT0._000022.DAOD_EXOT5.test.pool.root'
p161
aS'root://fax.mwt2.org:1094//pnfs/uchicago.edu/atlaslocalgroupdisk/rucio/user/schae/bd/cc/user.schae.15490794.EXT0._000023.DAOD_EXOT5.test.pool.root'
p162
aS'root://fax.mwt2.org:1094//pnfs/uchicago.edu/atlaslocalgroupdisk/rucio/user/schae/77/2f/user.schae.15490794.EXT0._000024.DAOD_EXOT5.test.pool.root'
p163
aS'root://fax.mwt2.org:1094//pnfs/uchicago.edu/atlaslocalgroupdisk/rucio/user/schae/71/dd/user.schae.15490794.EXT0._000025.DAOD_EXOT5.test.pool.root'
p164
aS'root://fax.mwt2.org:1094//pnfs/uchicago.edu/atlaslocalgroupdisk/rucio/user/schae/eb/a8/user.schae.15490794.EXT0._000026.DAOD_EXOT5.test.pool.root'
p165
aS'root://fax.mwt2.org:1094//pnfs/uchicago.edu/atlaslocalgroupdisk/rucio/user/schae/b1/37/user.schae.15490794.EXT0._000027.DAOD_EXOT5.test.pool.root'
p166
aS'root://fax.mwt2.org:1094//pnfs/uchicago.edu/atlaslocalgroupdisk/rucio/user/schae/0f/32/user.schae.15490794.EXT0._000028.DAOD_EXOT5.test.pool.root'
p167
aS'root://fax.mwt2.org:1094//pnfs/uchicago.edu/atlaslocalgroupdisk/rucio/user/schae/76/bd/user.schae.15490794.EXT0._000029.DAOD_EXOT5.test.pool.root'
p168
aS'root://fax.mwt2.org:1094//pnfs/uchicago.edu/atlaslocalgroupdisk/rucio/user/schae/26/17/user.schae.15490794.EXT0._000030.DAOD_EXOT5.test.pool.root'
p169
aS'root://fax.mwt2.org:1094//pnfs/uchicago.edu/atlaslocalgroupdisk/rucio/user/schae/64/4a/user.schae.15490794.EXT0._000031.DAOD_EXOT5.test.pool.root'
p170
aS'root://fax.mwt2.org:1094//pnfs/uchicago.edu/atlaslocalgroupdisk/rucio/user/schae/ea/f8/user.schae.15490794.EXT0._000032.DAOD_EXOT5.test.pool.root'
p171
aS'root://fax.mwt2.org:1094//pnfs/uchicago.edu/atlaslocalgroupdisk/rucio/user/schae/fe/34/user.schae.15490794.EXT0._000033.DAOD_EXOT5.test.pool.root'
p172
aS'root://fax.mwt2.org:1094//pnfs/uchicago.edu/atlaslocalgroupdisk/rucio/user/schae/3e/6b/user.schae.15490794.EXT0._000034.DAOD_EXOT5.test.pool.root'
p173
aS'root://fax.mwt2.org:1094//pnfs/uchicago.edu/atlaslocalgroupdisk/rucio/user/schae/75/bd/user.schae.15490794.EXT0._000035.DAOD_EXOT5.test.pool.root'
p174
aS'root://fax.mwt2.org:1094//pnfs/uchicago.edu/atlaslocalgroupdisk/rucio/user/schae/1b/bf/user.schae.15490794.EXT0._000036.DAOD_EXOT5.test.pool.root'
p175
aS'root://fax.mwt2.org:1094//pnfs/uchicago.edu/atlaslocalgroupdisk/rucio/user/schae/51/b2/user.schae.15490794.EXT0._000037.DAOD_EXOT5.test.pool.root'
p176
aS'root://fax.mwt2.org:1094//pnfs/uchicago.edu/atlaslocalgroupdisk/rucio/user/schae/0c/3f/user.schae.15490794.EXT0._000038.DAOD_EXOT5.test.pool.root'
p177
aS'root://fax.mwt2.org:1094//pnfs/uchicago.edu/atlaslocalgroupdisk/rucio/user/schae/39/c6/user.schae.15490794.EXT0._000039.DAOD_EXOT5.test.pool.root'
p178
aS'root://fax.mwt2.org:1094//pnfs/uchicago.edu/atlaslocalgroupdisk/rucio/user/schae/0d/69/user.schae.15490794.EXT0._000040.DAOD_EXOT5.test.pool.root'
p179
aS'root://fax.mwt2.org:1094//pnfs/uchicago.edu/atlaslocalgroupdisk/rucio/user/schae/bb/06/user.schae.15490794.EXT0._000041.DAOD_EXOT5.test.pool.root'
p180
aS'root://fax.mwt2.org:1094//pnfs/uchicago.edu/atlaslocalgroupdisk/rucio/user/schae/50/b2/user.schae.15490794.EXT0._000042.DAOD_EXOT5.test.pool.root'
p181
aS'root://fax.mwt2.org:1094//pnfs/uchicago.edu/atlaslocalgroupdisk/rucio/user/schae/c9/63/user.schae.15490794.EXT0._000043.DAOD_EXOT5.test.pool.root'
p182
aS'root://fax.mwt2.org:1094//pnfs/uchicago.edu/atlaslocalgroupdisk/rucio/user/schae/6a/b4/user.schae.15490794.EXT0._000044.DAOD_EXOT5.test.pool.root'
p183
aS'root://fax.mwt2.org:1094//pnfs/uchicago.edu/atlaslocalgroupdisk/rucio/user/schae/37/5e/user.schae.15490794.EXT0._000045.DAOD_EXOT5.test.pool.root'
p184
aS'root://fax.mwt2.org:1094//pnfs/uchicago.edu/atlaslocalgroupdisk/rucio/user/schae/25/3a/user.schae.15490794.EXT0._000046.DAOD_EXOT5.test.pool.root'
p185
aS'root://fax.mwt2.org:1094//pnfs/uchicago.edu/atlaslocalgroupdisk/rucio/user/schae/bd/85/user.schae.15490794.EXT0._000047.DAOD_EXOT5.test.pool.root'
p186
aS'root://fax.mwt2.org:1094//pnfs/uchicago.edu/atlaslocalgroupdisk/rucio/user/schae/45/5c/user.schae.15490794.EXT0._000048.DAOD_EXOT5.test.pool.root'
p187
aS'root://fax.mwt2.org:1094//pnfs/uchicago.edu/atlaslocalgroupdisk/rucio/user/schae/1e/c2/user.schae.15490794.EXT0._000049.DAOD_EXOT5.test.pool.root'
p188
aS'root://fax.mwt2.org:1094//pnfs/uchicago.edu/atlaslocalgroupdisk/rucio/user/schae/d6/39/user.schae.15490794.EXT0._000050.DAOD_EXOT5.test.pool.root'
p189
aS'root://fax.mwt2.org:1094//pnfs/uchicago.edu/atlaslocalgroupdisk/rucio/user/schae/d7/e5/user.schae.15490794.EXT0._000051.DAOD_EXOT5.test.pool.root'
p190
aS'root://fax.mwt2.org:1094//pnfs/uchicago.edu/atlaslocalgroupdisk/rucio/user/schae/e0/58/user.schae.15490794.EXT0._000052.DAOD_EXOT5.test.pool.root'
p191
aS'root://fax.mwt2.org:1094//pnfs/uchicago.edu/atlaslocalgroupdisk/rucio/user/schae/ba/fb/user.schae.15490794.EXT0._000053.DAOD_EXOT5.test.pool.root'
p192
aS'root://fax.mwt2.org:1094//pnfs/uchicago.edu/atlaslocalgroupdisk/rucio/user/schae/8c/2c/user.schae.15490794.EXT0._000054.DAOD_EXOT5.test.pool.root'
p193
aS'root://fax.mwt2.org:1094//pnfs/uchicago.edu/atlaslocalgroupdisk/rucio/user/schae/2b/66/user.schae.15490794.EXT0._000055.DAOD_EXOT5.test.pool.root'
p194
aS'root://fax.mwt2.org:1094//pnfs/uchicago.edu/atlaslocalgroupdisk/rucio/user/schae/28/77/user.schae.15490794.EXT0._000056.DAOD_EXOT5.test.pool.root'
p195
aS'root://fax.mwt2.org:1094//pnfs/uchicago.edu/atlaslocalgroupdisk/rucio/user/schae/52/53/user.schae.15490794.EXT0._000057.DAOD_EXOT5.test.pool.root'
p196
aS'root://fax.mwt2.org:1094//pnfs/uchicago.edu/atlaslocalgroupdisk/rucio/user/schae/05/63/user.schae.15490794.EXT0._000058.DAOD_EXOT5.test.pool.root'
p197
aS'root://fax.mwt2.org:1094//pnfs/uchicago.edu/atlaslocalgroupdisk/rucio/user/schae/38/2c/user.schae.15490794.EXT0._000059.DAOD_EXOT5.test.pool.root'
p198
aS'root://fax.mwt2.org:1094//pnfs/uchicago.edu/atlaslocalgroupdisk/rucio/user/schae/45/b0/user.schae.15490794.EXT0._000060.DAOD_EXOT5.test.pool.root'
p199
aS'root://fax.mwt2.org:1094//pnfs/uchicago.edu/atlaslocalgroupdisk/rucio/user/schae/07/69/user.schae.15490794.EXT0._000061.DAOD_EXOT5.test.pool.root'
p200
aS'root://fax.mwt2.org:1094//pnfs/uchicago.edu/atlaslocalgroupdisk/rucio/user/schae/ed/8b/user.schae.15490794.EXT0._000062.DAOD_EXOT5.test.pool.root'
p201
aS'root://fax.mwt2.org:1094//pnfs/uchicago.edu/atlaslocalgroupdisk/rucio/user/schae/38/e6/user.schae.15490794.EXT0._000063.DAOD_EXOT5.test.pool.root'
p202
aS'root://fax.mwt2.org:1094//pnfs/uchicago.edu/atlaslocalgroupdisk/rucio/user/schae/6f/6f/user.schae.15490794.EXT0._000064.DAOD_EXOT5.test.pool.root'
p203
aS'root://fax.mwt2.org:1094//pnfs/uchicago.edu/atlaslocalgroupdisk/rucio/user/schae/6b/d2/user.schae.15490794.EXT0._000065.DAOD_EXOT5.test.pool.root'
p204
aS'root://fax.mwt2.org:1094//pnfs/uchicago.edu/atlaslocalgroupdisk/rucio/user/schae/33/23/user.schae.15490794.EXT0._000066.DAOD_EXOT5.test.pool.root'
p205
aS'root://fax.mwt2.org:1094//pnfs/uchicago.edu/atlaslocalgroupdisk/rucio/user/schae/69/9e/user.schae.15490794.EXT0._000067.DAOD_EXOT5.test.pool.root'
p206
aS'root://fax.mwt2.org:1094//pnfs/uchicago.edu/atlaslocalgroupdisk/rucio/user/schae/7d/92/user.schae.15490794.EXT0._000068.DAOD_EXOT5.test.pool.root'
p207
aS'root://fax.mwt2.org:1094//pnfs/uchicago.edu/atlaslocalgroupdisk/rucio/user/schae/de/37/user.schae.15490794.EXT0._000069.DAOD_EXOT5.test.pool.root'
p208
aS'root://fax.mwt2.org:1094//pnfs/uchicago.edu/atlaslocalgroupdisk/rucio/user/schae/de/e5/user.schae.15490794.EXT0._000070.DAOD_EXOT5.test.pool.root'
p209
aS'root://fax.mwt2.org:1094//pnfs/uchicago.edu/atlaslocalgroupdisk/rucio/user/schae/ff/ae/user.schae.15490794.EXT0._000071.DAOD_EXOT5.test.pool.root'
p210
aS'root://fax.mwt2.org:1094//pnfs/uchicago.edu/atlaslocalgroupdisk/rucio/user/schae/5a/00/user.schae.15490794.EXT0._000072.DAOD_EXOT5.test.pool.root'
p211
aS'root://fax.mwt2.org:1094//pnfs/uchicago.edu/atlaslocalgroupdisk/rucio/user/schae/a5/ea/user.schae.15490794.EXT0._000073.DAOD_EXOT5.test.pool.root'
p212
aS'root://fax.mwt2.org:1094//pnfs/uchicago.edu/atlaslocalgroupdisk/rucio/user/schae/88/e2/user.schae.15490794.EXT0._000074.DAOD_EXOT5.test.pool.root'
p213
aS'root://fax.mwt2.org:1094//pnfs/uchicago.edu/atlaslocalgroupdisk/rucio/user/schae/6e/e4/user.schae.15490794.EXT0._000075.DAOD_EXOT5.test.pool.root'
p214
aS'root://fax.mwt2.org:1094//pnfs/uchicago.edu/atlaslocalgroupdisk/rucio/user/schae/80/e9/user.schae.15490794.EXT0._000076.DAOD_EXOT5.test.pool.root'
p215
aS'root://fax.mwt2.org:1094//pnfs/uchicago.edu/atlaslocalgroupdisk/rucio/user/schae/83/b7/user.schae.15490794.EXT0._000077.DAOD_EXOT5.test.pool.root'
p216
aS'root://fax.mwt2.org:1094//pnfs/uchicago.edu/atlaslocalgroupdisk/rucio/user/schae/72/83/user.schae.15490794.EXT0._000078.DAOD_EXOT5.test.pool.root'
p217
aS'root://fax.mwt2.org:1094//pnfs/uchicago.edu/atlaslocalgroupdisk/rucio/user/schae/c5/e3/user.schae.15490794.EXT0._000079.DAOD_EXOT5.test.pool.root'
p218
aS'root://fax.mwt2.org:1094//pnfs/uchicago.edu/atlaslocalgroupdisk/rucio/user/schae/b0/10/user.schae.15490794.EXT0._000080.DAOD_EXOT5.test.pool.root'
p219
aS'root://fax.mwt2.org:1094//pnfs/uchicago.edu/atlaslocalgroupdisk/rucio/user/schae/83/49/user.schae.15490794.EXT0._000081.DAOD_EXOT5.test.pool.root'
p220
aS'root://fax.mwt2.org:1094//pnfs/uchicago.edu/atlaslocalgroupdisk/rucio/user/schae/19/21/user.schae.15490794.EXT0._000082.DAOD_EXOT5.test.pool.root'
p221
aS'root://fax.mwt2.org:1094//pnfs/uchicago.edu/atlaslocalgroupdisk/rucio/user/schae/c2/c5/user.schae.15490794.EXT0._000083.DAOD_EXOT5.test.pool.root'
p222
aS'root://fax.mwt2.org:1094//pnfs/uchicago.edu/atlaslocalgroupdisk/rucio/user/schae/a7/be/user.schae.15490794.EXT0._000084.DAOD_EXOT5.test.pool.root'
p223
aS'root://fax.mwt2.org:1094//pnfs/uchicago.edu/atlaslocalgroupdisk/rucio/user/schae/18/39/user.schae.15490794.EXT0._000085.DAOD_EXOT5.test.pool.root'
p224
aS'root://fax.mwt2.org:1094//pnfs/uchicago.edu/atlaslocalgroupdisk/rucio/user/schae/07/e0/user.schae.15490794.EXT0._000086.DAOD_EXOT5.test.pool.root'
p225
aS'root://fax.mwt2.org:1094//pnfs/uchicago.edu/atlaslocalgroupdisk/rucio/user/schae/f3/cc/user.schae.15490794.EXT0._000087.DAOD_EXOT5.test.pool.root'
p226
aS'root://fax.mwt2.org:1094//pnfs/uchicago.edu/atlaslocalgroupdisk/rucio/user/schae/58/3e/user.schae.15490794.EXT0._000088.DAOD_EXOT5.test.pool.root'
p227
aS'root://fax.mwt2.org:1094//pnfs/uchicago.edu/atlaslocalgroupdisk/rucio/user/schae/e1/85/user.schae.15490794.EXT0._000089.DAOD_EXOT5.test.pool.root'
p228
aS'root://fax.mwt2.org:1094//pnfs/uchicago.edu/atlaslocalgroupdisk/rucio/user/schae/5c/f7/user.schae.15490794.EXT0._000090.DAOD_EXOT5.test.pool.root'
p229
aS'root://fax.mwt2.org:1094//pnfs/uchicago.edu/atlaslocalgroupdisk/rucio/user/schae/c1/c9/user.schae.15490794.EXT0._000091.DAOD_EXOT5.test.pool.root'
p230
aS'root://fax.mwt2.org:1094//pnfs/uchicago.edu/atlaslocalgroupdisk/rucio/user/schae/0a/e7/user.schae.15490794.EXT0._000092.DAOD_EXOT5.test.pool.root'
p231
aS'root://fax.mwt2.org:1094//pnfs/uchicago.edu/atlaslocalgroupdisk/rucio/user/schae/66/57/user.schae.15490794.EXT0._000093.DAOD_EXOT5.test.pool.root'
p232
aS'root://fax.mwt2.org:1094//pnfs/uchicago.edu/atlaslocalgroupdisk/rucio/user/schae/19/6e/user.schae.15490794.EXT0._000094.DAOD_EXOT5.test.pool.root'
p233
aS'root://fax.mwt2.org:1094//pnfs/uchicago.edu/atlaslocalgroupdisk/rucio/user/schae/92/a0/user.schae.15490794.EXT0._000095.DAOD_EXOT5.test.pool.root'
p234
aS'root://fax.mwt2.org:1094//pnfs/uchicago.edu/atlaslocalgroupdisk/rucio/user/schae/02/e7/user.schae.15490794.EXT0._000096.DAOD_EXOT5.test.pool.root'
p235
aS'root://fax.mwt2.org:1094//pnfs/uchicago.edu/atlaslocalgroupdisk/rucio/user/schae/cc/43/user.schae.15490794.EXT0._000097.DAOD_EXOT5.test.pool.root'
p236
aS'root://fax.mwt2.org:1094//pnfs/uchicago.edu/atlaslocalgroupdisk/rucio/user/schae/63/c0/user.schae.15490794.EXT0._000098.DAOD_EXOT5.test.pool.root'
p237
aS'root://fax.mwt2.org:1094//pnfs/uchicago.edu/atlaslocalgroupdisk/rucio/user/schae/9f/3b/user.schae.15490794.EXT0._000099.DAOD_EXOT5.test.pool.root'
p238
aS'root://fax.mwt2.org:1094//pnfs/uchicago.edu/atlaslocalgroupdisk/rucio/user/schae/9d/8b/user.schae.15490794.EXT0._000100.DAOD_EXOT5.test.pool.root'
p239
aS'root://fax.mwt2.org:1094//pnfs/uchicago.edu/atlaslocalgroupdisk/rucio/user/schae/34/c0/user.schae.15490794.EXT0._000101.DAOD_EXOT5.test.pool.root'
p240
aS'root://fax.mwt2.org:1094//pnfs/uchicago.edu/atlaslocalgroupdisk/rucio/user/schae/55/3e/user.schae.15490794.EXT0._000102.DAOD_EXOT5.test.pool.root'
p241
aS'root://fax.mwt2.org:1094//pnfs/uchicago.edu/atlaslocalgroupdisk/rucio/user/schae/4d/fe/user.schae.15490794.EXT0._000103.DAOD_EXOT5.test.pool.root'
p242
aS'root://fax.mwt2.org:1094//pnfs/uchicago.edu/atlaslocalgroupdisk/rucio/user/schae/4f/43/user.schae.15490794.EXT0._000104.DAOD_EXOT5.test.pool.root'
p243
aS'root://fax.mwt2.org:1094//pnfs/uchicago.edu/atlaslocalgroupdisk/rucio/user/schae/5d/ba/user.schae.15490794.EXT0._000105.DAOD_EXOT5.test.pool.root'
p244
aS'root://fax.mwt2.org:1094//pnfs/uchicago.edu/atlaslocalgroupdisk/rucio/user/schae/43/63/user.schae.15490794.EXT0._000106.DAOD_EXOT5.test.pool.root'
p245
aS'root://fax.mwt2.org:1094//pnfs/uchicago.edu/atlaslocalgroupdisk/rucio/user/schae/74/50/user.schae.15490794.EXT0._000107.DAOD_EXOT5.test.pool.root'
p246
aS'root://fax.mwt2.org:1094//pnfs/uchicago.edu/atlaslocalgroupdisk/rucio/user/schae/20/72/user.schae.15490794.EXT0._000108.DAOD_EXOT5.test.pool.root'
p247
aS'root://fax.mwt2.org:1094//pnfs/uchicago.edu/atlaslocalgroupdisk/rucio/user/schae/a2/da/user.schae.15490794.EXT0._000109.DAOD_EXOT5.test.pool.root'
p248
aS'root://fax.mwt2.org:1094//pnfs/uchicago.edu/atlaslocalgroupdisk/rucio/user/schae/38/08/user.schae.15490794.EXT0._000110.DAOD_EXOT5.test.pool.root'
p249
aS'root://fax.mwt2.org:1094//pnfs/uchicago.edu/atlaslocalgroupdisk/rucio/user/schae/74/db/user.schae.15490794.EXT0._000111.DAOD_EXOT5.test.pool.root'
p250
aS'root://fax.mwt2.org:1094//pnfs/uchicago.edu/atlaslocalgroupdisk/rucio/user/schae/f0/f2/user.schae.15490794.EXT0._000112.DAOD_EXOT5.test.pool.root'
p251
aS'root://fax.mwt2.org:1094//pnfs/uchicago.edu/atlaslocalgroupdisk/rucio/user/schae/9e/7a/user.schae.15490794.EXT0._000113.DAOD_EXOT5.test.pool.root'
p252
aS'root://fax.mwt2.org:1094//pnfs/uchicago.edu/atlaslocalgroupdisk/rucio/user/schae/c9/17/user.schae.15490794.EXT0._000114.DAOD_EXOT5.test.pool.root'
p253
aS'root://fax.mwt2.org:1094//pnfs/uchicago.edu/atlaslocalgroupdisk/rucio/user/schae/2b/77/user.schae.15490794.EXT0._000115.DAOD_EXOT5.test.pool.root'
p254
aS'root://fax.mwt2.org:1094//pnfs/uchicago.edu/atlaslocalgroupdisk/rucio/user/schae/3d/ae/user.schae.15490794.EXT0._000116.DAOD_EXOT5.test.pool.root'
p255
aS'root://fax.mwt2.org:1094//pnfs/uchicago.edu/atlaslocalgroupdisk/rucio/user/schae/6a/66/user.schae.15490794.EXT0._000117.DAOD_EXOT5.test.pool.root'
p256
aS'root://fax.mwt2.org:1094//pnfs/uchicago.edu/atlaslocalgroupdisk/rucio/user/schae/3a/d3/user.schae.15490794.EXT0._000118.DAOD_EXOT5.test.pool.root'
p257
aS'root://fax.mwt2.org:1094//pnfs/uchicago.edu/atlaslocalgroupdisk/rucio/user/schae/13/2c/user.schae.15490794.EXT0._000119.DAOD_EXOT5.test.pool.root'
p258
aS'root://fax.mwt2.org:1094//pnfs/uchicago.edu/atlaslocalgroupdisk/rucio/user/schae/86/d4/user.schae.15490794.EXT0._000120.DAOD_EXOT5.test.pool.root'
p259
aS'root://fax.mwt2.org:1094//pnfs/uchicago.edu/atlaslocalgroupdisk/rucio/user/schae/f5/38/user.schae.15490794.EXT0._000121.DAOD_EXOT5.test.pool.root'
p260
aS'root://fax.mwt2.org:1094//pnfs/uchicago.edu/atlaslocalgroupdisk/rucio/user/schae/e3/a4/user.schae.15490794.EXT0._000122.DAOD_EXOT5.test.pool.root'
p261
aS'root://fax.mwt2.org:1094//pnfs/uchicago.edu/atlaslocalgroupdisk/rucio/user/schae/d3/34/user.schae.15490794.EXT0._000123.DAOD_EXOT5.test.pool.root'
p262
aS'root://fax.mwt2.org:1094//pnfs/uchicago.edu/atlaslocalgroupdisk/rucio/user/schae/78/ee/user.schae.15490794.EXT0._000124.DAOD_EXOT5.test.pool.root'
p263
aS'root://fax.mwt2.org:1094//pnfs/uchicago.edu/atlaslocalgroupdisk/rucio/user/schae/08/23/user.schae.15490794.EXT0._000125.DAOD_EXOT5.test.pool.root'
p264
aS'root://fax.mwt2.org:1094//pnfs/uchicago.edu/atlaslocalgroupdisk/rucio/user/schae/3d/7a/user.schae.15490794.EXT0._000126.DAOD_EXOT5.test.pool.root'
p265
aS'root://fax.mwt2.org:1094//pnfs/uchicago.edu/atlaslocalgroupdisk/rucio/user/schae/8e/16/user.schae.15490794.EXT0._000127.DAOD_EXOT5.test.pool.root'
p266
aS'root://fax.mwt2.org:1094//pnfs/uchicago.edu/atlaslocalgroupdisk/rucio/user/schae/fc/5e/user.schae.15490794.EXT0._000128.DAOD_EXOT5.test.pool.root'
p267
aS'root://fax.mwt2.org:1094//pnfs/uchicago.edu/atlaslocalgroupdisk/rucio/user/schae/0b/13/user.schae.15490794.EXT0._000129.DAOD_EXOT5.test.pool.root'
p268
aS'root://fax.mwt2.org:1094//pnfs/uchicago.edu/atlaslocalgroupdisk/rucio/user/schae/7c/5b/user.schae.15490794.EXT0._000130.DAOD_EXOT5.test.pool.root'
p269
aS'root://fax.mwt2.org:1094//pnfs/uchicago.edu/atlaslocalgroupdisk/rucio/user/schae/b4/19/user.schae.15490794.EXT0._000131.DAOD_EXOT5.test.pool.root'
p270
aS'root://fax.mwt2.org:1094//pnfs/uchicago.edu/atlaslocalgroupdisk/rucio/user/schae/88/a7/user.schae.15490794.EXT0._000132.DAOD_EXOT5.test.pool.root'
p271
aS'root://fax.mwt2.org:1094//pnfs/uchicago.edu/atlaslocalgroupdisk/rucio/user/schae/98/ba/user.schae.15490794.EXT0._000133.DAOD_EXOT5.test.pool.root'
p272
aS'root://fax.mwt2.org:1094//pnfs/uchicago.edu/atlaslocalgroupdisk/rucio/user/schae/20/3d/user.schae.15490794.EXT0._000134.DAOD_EXOT5.test.pool.root'
p273
aS'root://fax.mwt2.org:1094//pnfs/uchicago.edu/atlaslocalgroupdisk/rucio/user/schae/ea/91/user.schae.15490794.EXT0._000135.DAOD_EXOT5.test.pool.root'
p274
aS'root://fax.mwt2.org:1094//pnfs/uchicago.edu/atlaslocalgroupdisk/rucio/user/schae/c0/f8/user.schae.15490794.EXT0._000136.DAOD_EXOT5.test.pool.root'
p275
aS'root://fax.mwt2.org:1094//pnfs/uchicago.edu/atlaslocalgroupdisk/rucio/user/schae/ba/99/user.schae.15490794.EXT0._000137.DAOD_EXOT5.test.pool.root'
p276
aS'root://fax.mwt2.org:1094//pnfs/uchicago.edu/atlaslocalgroupdisk/rucio/user/schae/32/d3/user.schae.15490794.EXT0._000138.DAOD_EXOT5.test.pool.root'
p277
aS'root://fax.mwt2.org:1094//pnfs/uchicago.edu/atlaslocalgroupdisk/rucio/user/schae/16/e2/user.schae.15490794.EXT0._000139.DAOD_EXOT5.test.pool.root'
p278
aS'root://fax.mwt2.org:1094//pnfs/uchicago.edu/atlaslocalgroupdisk/rucio/user/schae/e9/19/user.schae.15490794.EXT0._000140.DAOD_EXOT5.test.pool.root'
p279
aS'root://fax.mwt2.org:1094//pnfs/uchicago.edu/atlaslocalgroupdisk/rucio/user/schae/6a/34/user.schae.15490794.EXT0._000141.DAOD_EXOT5.test.pool.root'
p280
aS'root://fax.mwt2.org:1094//pnfs/uchicago.edu/atlaslocalgroupdisk/rucio/user/schae/45/77/user.schae.15490794.EXT0._000142.DAOD_EXOT5.test.pool.root'
p281
aS'root://fax.mwt2.org:1094//pnfs/uchicago.edu/atlaslocalgroupdisk/rucio/user/schae/49/a0/user.schae.15490794.EXT0._000143.DAOD_EXOT5.test.pool.root'
p282
aS'root://fax.mwt2.org:1094//pnfs/uchicago.edu/atlaslocalgroupdisk/rucio/user/schae/6c/a1/user.schae.15490794.EXT0._000144.DAOD_EXOT5.test.pool.root'
p283
aS'root://fax.mwt2.org:1094//pnfs/uchicago.edu/atlaslocalgroupdisk/rucio/user/schae/2d/a0/user.schae.15490794.EXT0._000145.DAOD_EXOT5.test.pool.root'
p284
aS'root://fax.mwt2.org:1094//pnfs/uchicago.edu/atlaslocalgroupdisk/rucio/user/schae/e8/0c/user.schae.15490794.EXT0._000146.DAOD_EXOT5.test.pool.root'
p285
aS'root://fax.mwt2.org:1094//pnfs/uchicago.edu/atlaslocalgroupdisk/rucio/user/schae/a8/47/user.schae.15490794.EXT0._000147.DAOD_EXOT5.test.pool.root'
p286
aS'root://fax.mwt2.org:1094//pnfs/uchicago.edu/atlaslocalgroupdisk/rucio/user/schae/02/4b/user.schae.15490794.EXT0._000148.DAOD_EXOT5.test.pool.root'
p287
aS'root://fax.mwt2.org:1094//pnfs/uchicago.edu/atlaslocalgroupdisk/rucio/user/schae/ac/60/user.schae.15490794.EXT0._000149.DAOD_EXOT5.test.pool.root'
p288
aS'root://fax.mwt2.org:1094//pnfs/uchicago.edu/atlaslocalgroupdisk/rucio/user/schae/5e/f1/user.schae.15490794.EXT0._000150.DAOD_EXOT5.test.pool.root'
p289
aS'root://fax.mwt2.org:1094//pnfs/uchicago.edu/atlaslocalgroupdisk/rucio/user/schae/78/85/user.schae.15490794.EXT0._000151.DAOD_EXOT5.test.pool.root'
p290
aS'root://fax.mwt2.org:1094//pnfs/uchicago.edu/atlaslocalgroupdisk/rucio/user/schae/76/a5/user.schae.15490794.EXT0._000152.DAOD_EXOT5.test.pool.root'
p291
aS'root://fax.mwt2.org:1094//pnfs/uchicago.edu/atlaslocalgroupdisk/rucio/user/schae/37/3e/user.schae.15490794.EXT0._000153.DAOD_EXOT5.test.pool.root'
p292
aS'root://fax.mwt2.org:1094//pnfs/uchicago.edu/atlaslocalgroupdisk/rucio/user/schae/f4/e0/user.schae.15490794.EXT0._000154.DAOD_EXOT5.test.pool.root'
p293
aS'root://fax.mwt2.org:1094//pnfs/uchicago.edu/atlaslocalgroupdisk/rucio/user/schae/f5/70/user.schae.15490794.EXT0._000155.DAOD_EXOT5.test.pool.root'
p294
aS'root://fax.mwt2.org:1094//pnfs/uchicago.edu/atlaslocalgroupdisk/rucio/user/schae/78/80/user.schae.15490794.EXT0._000156.DAOD_EXOT5.test.pool.root'
p295
aS'root://fax.mwt2.org:1094//pnfs/uchicago.edu/atlaslocalgroupdisk/rucio/user/schae/61/16/user.schae.15490794.EXT0._000157.DAOD_EXOT5.test.pool.root'
p296
aS'root://fax.mwt2.org:1094//pnfs/uchicago.edu/atlaslocalgroupdisk/rucio/user/schae/db/8c/user.schae.15490794.EXT0._000158.DAOD_EXOT5.test.pool.root'
p297
aS'root://fax.mwt2.org:1094//pnfs/uchicago.edu/atlaslocalgroupdisk/rucio/user/schae/96/84/user.schae.15490794.EXT0._000159.DAOD_EXOT5.test.pool.root'
p298
aS'root://fax.mwt2.org:1094//pnfs/uchicago.edu/atlaslocalgroupdisk/rucio/user/schae/6f/12/user.schae.15490794.EXT0._000160.DAOD_EXOT5.test.pool.root'
p299
aS'root://fax.mwt2.org:1094//pnfs/uchicago.edu/atlaslocalgroupdisk/rucio/user/schae/97/81/user.schae.15490794.EXT0._000161.DAOD_EXOT5.test.pool.root'
p300
aS'root://fax.mwt2.org:1094//pnfs/uchicago.edu/atlaslocalgroupdisk/rucio/user/schae/25/a4/user.schae.15490794.EXT0._000162.DAOD_EXOT5.test.pool.root'
p301
aS'root://fax.mwt2.org:1094//pnfs/uchicago.edu/atlaslocalgroupdisk/rucio/user/schae/a8/a1/user.schae.15490794.EXT0._000163.DAOD_EXOT5.test.pool.root'
p302
aS'root://fax.mwt2.org:1094//pnfs/uchicago.edu/atlaslocalgroupdisk/rucio/user/schae/82/10/user.schae.15490794.EXT0._000164.DAOD_EXOT5.test.pool.root'
p303
aS'root://fax.mwt2.org:1094//pnfs/uchicago.edu/atlaslocalgroupdisk/rucio/user/schae/a1/d8/user.schae.15490794.EXT0._000165.DAOD_EXOT5.test.pool.root'
p304
aS'root://fax.mwt2.org:1094//pnfs/uchicago.edu/atlaslocalgroupdisk/rucio/user/schae/cc/28/user.schae.15490794.EXT0._000166.DAOD_EXOT5.test.pool.root'
p305
aS'root://fax.mwt2.org:1094//pnfs/uchicago.edu/atlaslocalgroupdisk/rucio/user/schae/37/08/user.schae.15490794.EXT0._000167.DAOD_EXOT5.test.pool.root'
p306
aS'root://fax.mwt2.org:1094//pnfs/uchicago.edu/atlaslocalgroupdisk/rucio/user/schae/c3/b4/user.schae.15490794.EXT0._000168.DAOD_EXOT5.test.pool.root'
p307
aS'root://fax.mwt2.org:1094//pnfs/uchicago.edu/atlaslocalgroupdisk/rucio/user/schae/4b/1c/user.schae.15490794.EXT0._000169.DAOD_EXOT5.test.pool.root'
p308
aS'root://fax.mwt2.org:1094//pnfs/uchicago.edu/atlaslocalgroupdisk/rucio/user/schae/73/9e/user.schae.15490794.EXT0._000170.DAOD_EXOT5.test.pool.root'
p309
aS'root://fax.mwt2.org:1094//pnfs/uchicago.edu/atlaslocalgroupdisk/rucio/user/schae/e8/79/user.schae.15490794.EXT0._000171.DAOD_EXOT5.test.pool.root'
p310
aS'root://fax.mwt2.org:1094//pnfs/uchicago.edu/atlaslocalgroupdisk/rucio/user/schae/46/2d/user.schae.15490794.EXT0._000172.DAOD_EXOT5.test.pool.root'
p311
aS'root://fax.mwt2.org:1094//pnfs/uchicago.edu/atlaslocalgroupdisk/rucio/user/schae/06/49/user.schae.15490794.EXT0._000173.DAOD_EXOT5.test.pool.root'
p312
aS'root://fax.mwt2.org:1094//pnfs/uchicago.edu/atlaslocalgroupdisk/rucio/user/schae/d4/fb/user.schae.15490794.EXT0._000174.DAOD_EXOT5.test.pool.root'
p313
aS'root://fax.mwt2.org:1094//pnfs/uchicago.edu/atlaslocalgroupdisk/rucio/user/schae/1d/7b/user.schae.15490794.EXT0._000175.DAOD_EXOT5.test.pool.root'
p314
aS'root://fax.mwt2.org:1094//pnfs/uchicago.edu/atlaslocalgroupdisk/rucio/user/schae/7f/3c/user.schae.15490794.EXT0._000176.DAOD_EXOT5.test.pool.root'
p315
aS'root://fax.mwt2.org:1094//pnfs/uchicago.edu/atlaslocalgroupdisk/rucio/user/schae/71/48/user.schae.15490794.EXT0._000177.DAOD_EXOT5.test.pool.root'
p316
aS'root://fax.mwt2.org:1094//pnfs/uchicago.edu/atlaslocalgroupdisk/rucio/user/schae/c3/ba/user.schae.15490794.EXT0._000178.DAOD_EXOT5.test.pool.root'
p317
aS'root://fax.mwt2.org:1094//pnfs/uchicago.edu/atlaslocalgroupdisk/rucio/user/schae/e1/96/user.schae.15490794.EXT0._000179.DAOD_EXOT5.test.pool.root'
p318
aS'root://fax.mwt2.org:1094//pnfs/uchicago.edu/atlaslocalgroupdisk/rucio/user/schae/d5/69/user.schae.15490794.EXT0._000180.DAOD_EXOT5.test.pool.root'
p319
aS'root://fax.mwt2.org:1094//pnfs/uchicago.edu/atlaslocalgroupdisk/rucio/user/schae/03/f0/user.schae.15490794.EXT0._000181.DAOD_EXOT5.test.pool.root'
p320
aS'root://fax.mwt2.org:1094//pnfs/uchicago.edu/atlaslocalgroupdisk/rucio/user/schae/64/42/user.schae.15490794.EXT0._000182.DAOD_EXOT5.test.pool.root'
p321
aS'root://fax.mwt2.org:1094//pnfs/uchicago.edu/atlaslocalgroupdisk/rucio/user/schae/1a/a5/user.schae.15490794.EXT0._000183.DAOD_EXOT5.test.pool.root'
p322
aS'root://fax.mwt2.org:1094//pnfs/uchicago.edu/atlaslocalgroupdisk/rucio/user/schae/30/c8/user.schae.15490794.EXT0._000184.DAOD_EXOT5.test.pool.root'
p323
aS'root://fax.mwt2.org:1094//pnfs/uchicago.edu/atlaslocalgroupdisk/rucio/user/schae/e9/57/user.schae.15490794.EXT0._000185.DAOD_EXOT5.test.pool.root'
p324
aS'root://fax.mwt2.org:1094//pnfs/uchicago.edu/atlaslocalgroupdisk/rucio/user/schae/1b/95/user.schae.15490794.EXT0._000186.DAOD_EXOT5.test.pool.root'
p325
aS'root://fax.mwt2.org:1094//pnfs/uchicago.edu/atlaslocalgroupdisk/rucio/user/schae/ba/cd/user.schae.15490794.EXT0._000187.DAOD_EXOT5.test.pool.root'
p326
aS'root://fax.mwt2.org:1094//pnfs/uchicago.edu/atlaslocalgroupdisk/rucio/user/schae/5e/52/user.schae.15490794.EXT0._000188.DAOD_EXOT5.test.pool.root'
p327
aS'root://fax.mwt2.org:1094//pnfs/uchicago.edu/atlaslocalgroupdisk/rucio/user/schae/1e/a0/user.schae.15490794.EXT0._000189.DAOD_EXOT5.test.pool.root'
p328
aS'root://fax.mwt2.org:1094//pnfs/uchicago.edu/atlaslocalgroupdisk/rucio/user/schae/5b/42/user.schae.15490794.EXT0._000190.DAOD_EXOT5.test.pool.root'
p329
aS'root://fax.mwt2.org:1094//pnfs/uchicago.edu/atlaslocalgroupdisk/rucio/user/schae/4a/8f/user.schae.15490794.EXT0._000191.DAOD_EXOT5.test.pool.root'
p330
aS'root://fax.mwt2.org:1094//pnfs/uchicago.edu/atlaslocalgroupdisk/rucio/user/schae/3e/07/user.schae.15490794.EXT0._000192.DAOD_EXOT5.test.pool.root'
p331
aS'root://fax.mwt2.org:1094//pnfs/uchicago.edu/atlaslocalgroupdisk/rucio/user/schae/32/e0/user.schae.15490794.EXT0._000193.DAOD_EXOT5.test.pool.root'
p332
aS'root://fax.mwt2.org:1094//pnfs/uchicago.edu/atlaslocalgroupdisk/rucio/user/schae/91/26/user.schae.15490794.EXT0._000194.DAOD_EXOT5.test.pool.root'
p333
aS'root://fax.mwt2.org:1094//pnfs/uchicago.edu/atlaslocalgroupdisk/rucio/user/schae/5c/52/user.schae.15490794.EXT0._000195.DAOD_EXOT5.test.pool.root'
p334
aS'root://fax.mwt2.org:1094//pnfs/uchicago.edu/atlaslocalgroupdisk/rucio/user/schae/11/df/user.schae.15490794.EXT0._000196.DAOD_EXOT5.test.pool.root'
p335
aS'root://fax.mwt2.org:1094//pnfs/uchicago.edu/atlaslocalgroupdisk/rucio/user/schae/ae/28/user.schae.15490794.EXT0._000197.DAOD_EXOT5.test.pool.root'
p336
aS'root://fax.mwt2.org:1094//pnfs/uchicago.edu/atlaslocalgroupdisk/rucio/user/schae/f0/d5/user.schae.15490794.EXT0._000198.DAOD_EXOT5.test.pool.root'
p337
aS'root://fax.mwt2.org:1094//pnfs/uchicago.edu/atlaslocalgroupdisk/rucio/user/schae/19/0f/user.schae.15490794.EXT0._000199.DAOD_EXOT5.test.pool.root'
p338
aS'root://fax.mwt2.org:1094//pnfs/uchicago.edu/atlaslocalgroupdisk/rucio/user/schae/4a/d8/user.schae.15490794.EXT0._000200.DAOD_EXOT5.test.pool.root'
p339
aS'root://fax.mwt2.org:1094//pnfs/uchicago.edu/atlaslocalgroupdisk/rucio/user/schae/a9/c2/user.schae.15490794.EXT0._000201.DAOD_EXOT5.test.pool.root'
p340
aS'root://fax.mwt2.org:1094//pnfs/uchicago.edu/atlaslocalgroupdisk/rucio/user/schae/84/e9/user.schae.15490794.EXT0._000202.DAOD_EXOT5.test.pool.root'
p341
aS'root://fax.mwt2.org:1094//pnfs/uchicago.edu/atlaslocalgroupdisk/rucio/user/schae/10/62/user.schae.15490794.EXT0._000203.DAOD_EXOT5.test.pool.root'
p342
aS'root://fax.mwt2.org:1094//pnfs/uchicago.edu/atlaslocalgroupdisk/rucio/user/schae/68/39/user.schae.15490794.EXT0._000204.DAOD_EXOT5.test.pool.root'
p343
aS'root://fax.mwt2.org:1094//pnfs/uchicago.edu/atlaslocalgroupdisk/rucio/user/schae/54/8e/user.schae.15490794.EXT0._000205.DAOD_EXOT5.test.pool.root'
p344
aS'root://fax.mwt2.org:1094//pnfs/uchicago.edu/atlaslocalgroupdisk/rucio/user/schae/2a/ab/user.schae.15490794.EXT0._000206.DAOD_EXOT5.test.pool.root'
p345
aS'root://fax.mwt2.org:1094//pnfs/uchicago.edu/atlaslocalgroupdisk/rucio/user/schae/5b/29/user.schae.15490794.EXT0._000207.DAOD_EXOT5.test.pool.root'
p346
aS'root://fax.mwt2.org:1094//pnfs/uchicago.edu/atlaslocalgroupdisk/rucio/user/schae/0e/71/user.schae.15490794.EXT0._000208.DAOD_EXOT5.test.pool.root'
p347
aS'root://fax.mwt2.org:1094//pnfs/uchicago.edu/atlaslocalgroupdisk/rucio/user/schae/d1/29/user.schae.15490794.EXT0._000209.DAOD_EXOT5.test.pool.root'
p348
aS'root://fax.mwt2.org:1094//pnfs/uchicago.edu/atlaslocalgroupdisk/rucio/user/schae/2a/62/user.schae.15490794.EXT0._000210.DAOD_EXOT5.test.pool.root'
p349
aS'root://fax.mwt2.org:1094//pnfs/uchicago.edu/atlaslocalgroupdisk/rucio/user/schae/fa/d3/user.schae.15490794.EXT0._000211.DAOD_EXOT5.test.pool.root'
p350
aS'root://fax.mwt2.org:1094//pnfs/uchicago.edu/atlaslocalgroupdisk/rucio/user/schae/34/b0/user.schae.15490794.EXT0._000212.DAOD_EXOT5.test.pool.root'
p351
aS'root://fax.mwt2.org:1094//pnfs/uchicago.edu/atlaslocalgroupdisk/rucio/user/schae/cc/64/user.schae.15490794.EXT0._000213.DAOD_EXOT5.test.pool.root'
p352
aS'root://fax.mwt2.org:1094//pnfs/uchicago.edu/atlaslocalgroupdisk/rucio/user/schae/73/47/user.schae.15490794.EXT0._000214.DAOD_EXOT5.test.pool.root'
p353
aS'root://fax.mwt2.org:1094//pnfs/uchicago.edu/atlaslocalgroupdisk/rucio/user/schae/45/cd/user.schae.15490794.EXT0._000215.DAOD_EXOT5.test.pool.root'
p354
aS'root://fax.mwt2.org:1094//pnfs/uchicago.edu/atlaslocalgroupdisk/rucio/user/schae/0f/d7/user.schae.15490794.EXT0._000216.DAOD_EXOT5.test.pool.root'
p355
aS'root://fax.mwt2.org:1094//pnfs/uchicago.edu/atlaslocalgroupdisk/rucio/user/schae/15/50/user.schae.15490794.EXT0._000217.DAOD_EXOT5.test.pool.root'
p356
aS'root://fax.mwt2.org:1094//pnfs/uchicago.edu/atlaslocalgroupdisk/rucio/user/schae/14/8a/user.schae.15490794.EXT0._000218.DAOD_EXOT5.test.pool.root'
p357
aS'root://fax.mwt2.org:1094//pnfs/uchicago.edu/atlaslocalgroupdisk/rucio/user/schae/f4/29/user.schae.15490794.EXT0._000219.DAOD_EXOT5.test.pool.root'
p358
aS'root://fax.mwt2.org:1094//pnfs/uchicago.edu/atlaslocalgroupdisk/rucio/user/schae/46/a2/user.schae.15490794.EXT0._000220.DAOD_EXOT5.test.pool.root'
p359
aS'root://fax.mwt2.org:1094//pnfs/uchicago.edu/atlaslocalgroupdisk/rucio/user/schae/13/76/user.schae.15490794.EXT0._000221.DAOD_EXOT5.test.pool.root'
p360
aS'root://fax.mwt2.org:1094//pnfs/uchicago.edu/atlaslocalgroupdisk/rucio/user/schae/15/de/user.schae.15490794.EXT0._000222.DAOD_EXOT5.test.pool.root'
p361
aS'root://fax.mwt2.org:1094//pnfs/uchicago.edu/atlaslocalgroupdisk/rucio/user/schae/6b/6a/user.schae.15490794.EXT0._000223.DAOD_EXOT5.test.pool.root'
p362
aS'root://fax.mwt2.org:1094//pnfs/uchicago.edu/atlaslocalgroupdisk/rucio/user/schae/cc/24/user.schae.15490794.EXT0._000224.DAOD_EXOT5.test.pool.root'
p363
aS'root://fax.mwt2.org:1094//pnfs/uchicago.edu/atlaslocalgroupdisk/rucio/user/schae/db/b3/user.schae.15490794.EXT0._000225.DAOD_EXOT5.test.pool.root'
p364
aS'root://fax.mwt2.org:1094//pnfs/uchicago.edu/atlaslocalgroupdisk/rucio/user/schae/12/65/user.schae.15490794.EXT0._000226.DAOD_EXOT5.test.pool.root'
p365
aS'root://fax.mwt2.org:1094//pnfs/uchicago.edu/atlaslocalgroupdisk/rucio/user/schae/1e/67/user.schae.15490794.EXT0._000227.DAOD_EXOT5.test.pool.root'
p366
aS'root://fax.mwt2.org:1094//pnfs/uchicago.edu/atlaslocalgroupdisk/rucio/user/schae/f1/41/user.schae.15490794.EXT0._000228.DAOD_EXOT5.test.pool.root'
p367
aS'root://fax.mwt2.org:1094//pnfs/uchicago.edu/atlaslocalgroupdisk/rucio/user/schae/30/05/user.schae.15490794.EXT0._000229.DAOD_EXOT5.test.pool.root'
p368
aS'root://fax.mwt2.org:1094//pnfs/uchicago.edu/atlaslocalgroupdisk/rucio/user/schae/4a/92/user.schae.15490794.EXT0._000230.DAOD_EXOT5.test.pool.root'
p369
aS'root://fax.mwt2.org:1094//pnfs/uchicago.edu/atlaslocalgroupdisk/rucio/user/schae/4f/14/user.schae.15490794.EXT0._000231.DAOD_EXOT5.test.pool.root'
p370
aS'root://fax.mwt2.org:1094//pnfs/uchicago.edu/atlaslocalgroupdisk/rucio/user/schae/fc/4f/user.schae.15490794.EXT0._000232.DAOD_EXOT5.test.pool.root'
p371
aS'root://fax.mwt2.org:1094//pnfs/uchicago.edu/atlaslocalgroupdisk/rucio/user/schae/04/20/user.schae.15490794.EXT0._000233.DAOD_EXOT5.test.pool.root'
p372
aS'root://fax.mwt2.org:1094//pnfs/uchicago.edu/atlaslocalgroupdisk/rucio/user/schae/d8/65/user.schae.15490794.EXT0._000234.DAOD_EXOT5.test.pool.root'
p373
aS'root://fax.mwt2.org:1094//pnfs/uchicago.edu/atlaslocalgroupdisk/rucio/user/schae/76/6a/user.schae.15490794.EXT0._000235.DAOD_EXOT5.test.pool.root'
p374
aS'root://fax.mwt2.org:1094//pnfs/uchicago.edu/atlaslocalgroupdisk/rucio/user/schae/82/5d/user.schae.15490794.EXT0._000236.DAOD_EXOT5.test.pool.root'
p375
aS'root://fax.mwt2.org:1094//pnfs/uchicago.edu/atlaslocalgroupdisk/rucio/user/schae/a3/49/user.schae.15490794.EXT0._000237.DAOD_EXOT5.test.pool.root'
p376
aS'root://fax.mwt2.org:1094//pnfs/uchicago.edu/atlaslocalgroupdisk/rucio/user/schae/ba/fc/user.schae.15490794.EXT0._000238.DAOD_EXOT5.test.pool.root'
p377
aS'root://fax.mwt2.org:1094//pnfs/uchicago.edu/atlaslocalgroupdisk/rucio/user/schae/60/a8/user.schae.15490794.EXT0._000239.DAOD_EXOT5.test.pool.root'
p378
aS'root://fax.mwt2.org:1094//pnfs/uchicago.edu/atlaslocalgroupdisk/rucio/user/schae/b5/dd/user.schae.15490794.EXT0._000240.DAOD_EXOT5.test.pool.root'
p379
aS'root://fax.mwt2.org:1094//pnfs/uchicago.edu/atlaslocalgroupdisk/rucio/user/schae/d9/d0/user.schae.15490794.EXT0._000241.DAOD_EXOT5.test.pool.root'
p380
aS'root://fax.mwt2.org:1094//pnfs/uchicago.edu/atlaslocalgroupdisk/rucio/user/schae/de/7f/user.schae.15490794.EXT0._000242.DAOD_EXOT5.test.pool.root'
p381
aS'root://fax.mwt2.org:1094//pnfs/uchicago.edu/atlaslocalgroupdisk/rucio/user/schae/72/29/user.schae.15490794.EXT0._000243.DAOD_EXOT5.test.pool.root'
p382
aS'root://fax.mwt2.org:1094//pnfs/uchicago.edu/atlaslocalgroupdisk/rucio/user/schae/7d/df/user.schae.15490794.EXT0._000244.DAOD_EXOT5.test.pool.root'
p383
aS'root://fax.mwt2.org:1094//pnfs/uchicago.edu/atlaslocalgroupdisk/rucio/user/schae/72/d0/user.schae.15490794.EXT0._000245.DAOD_EXOT5.test.pool.root'
p384
aS'root://fax.mwt2.org:1094//pnfs/uchicago.edu/atlaslocalgroupdisk/rucio/user/schae/b5/be/user.schae.15490794.EXT0._000246.DAOD_EXOT5.test.pool.root'
p385
aS'root://fax.mwt2.org:1094//pnfs/uchicago.edu/atlaslocalgroupdisk/rucio/user/schae/b9/3c/user.schae.15490794.EXT0._000247.DAOD_EXOT5.test.pool.root'
p386
aS'root://fax.mwt2.org:1094//pnfs/uchicago.edu/atlaslocalgroupdisk/rucio/user/schae/9b/51/user.schae.15490794.EXT0._000248.DAOD_EXOT5.test.pool.root'
p387
aS'root://fax.mwt2.org:1094//pnfs/uchicago.edu/atlaslocalgroupdisk/rucio/user/schae/ea/4b/user.schae.15490794.EXT0._000249.DAOD_EXOT5.test.pool.root'
p388
aS'root://fax.mwt2.org:1094//pnfs/uchicago.edu/atlaslocalgroupdisk/rucio/user/schae/65/94/user.schae.15490794.EXT0._000250.DAOD_EXOT5.test.pool.root'
p389
asS'user.schae.SkimSep19DAOD.361515.EXOT5_EXT0'
p390
(lp391
S'root://fax.mwt2.org:1094//pnfs/uchicago.edu/atlaslocalgroupdisk/rucio/user/schae/a2/db/user.schae.15490773.EXT0._000001.DAOD_EXOT5.test.pool.root'
p392
aS'root://fax.mwt2.org:1094//pnfs/uchicago.edu/atlaslocalgroupdisk/rucio/user/schae/5c/c4/user.schae.15490773.EXT0._000002.DAOD_EXOT5.test.pool.root'
p393
aS'root://fax.mwt2.org:1094//pnfs/uchicago.edu/atlaslocalgroupdisk/rucio/user/schae/95/7a/user.schae.15490773.EXT0._000003.DAOD_EXOT5.test.pool.root'
p394
aS'root://fax.mwt2.org:1094//pnfs/uchicago.edu/atlaslocalgroupdisk/rucio/user/schae/f9/73/user.schae.15490773.EXT0._000004.DAOD_EXOT5.test.pool.root'
p395
aS'root://fax.mwt2.org:1094//pnfs/uchicago.edu/atlaslocalgroupdisk/rucio/user/schae/a5/2b/user.schae.15490773.EXT0._000005.DAOD_EXOT5.test.pool.root'
p396
aS'root://fax.mwt2.org:1094//pnfs/uchicago.edu/atlaslocalgroupdisk/rucio/user/schae/6b/60/user.schae.15490773.EXT0._000006.DAOD_EXOT5.test.pool.root'
p397
aS'root://fax.mwt2.org:1094//pnfs/uchicago.edu/atlaslocalgroupdisk/rucio/user/schae/27/c2/user.schae.15490773.EXT0._000007.DAOD_EXOT5.test.pool.root'
p398
aS'root://fax.mwt2.org:1094//pnfs/uchicago.edu/atlaslocalgroupdisk/rucio/user/schae/85/5d/user.schae.15490773.EXT0._000008.DAOD_EXOT5.test.pool.root'
p399
aS'root://fax.mwt2.org:1094//pnfs/uchicago.edu/atlaslocalgroupdisk/rucio/user/schae/48/eb/user.schae.15490773.EXT0._000009.DAOD_EXOT5.test.pool.root'
p400
aS'root://fax.mwt2.org:1094//pnfs/uchicago.edu/atlaslocalgroupdisk/rucio/user/schae/63/59/user.schae.15490773.EXT0._000010.DAOD_EXOT5.test.pool.root'
p401
aS'root://fax.mwt2.org:1094//pnfs/uchicago.edu/atlaslocalgroupdisk/rucio/user/schae/d0/ac/user.schae.15490773.EXT0._000011.DAOD_EXOT5.test.pool.root'
p402
aS'root://fax.mwt2.org:1094//pnfs/uchicago.edu/atlaslocalgroupdisk/rucio/user/schae/86/db/user.schae.15490773.EXT0._000012.DAOD_EXOT5.test.pool.root'
p403
aS'root://fax.mwt2.org:1094//pnfs/uchicago.edu/atlaslocalgroupdisk/rucio/user/schae/46/ed/user.schae.15490773.EXT0._000013.DAOD_EXOT5.test.pool.root'
p404
aS'root://fax.mwt2.org:1094//pnfs/uchicago.edu/atlaslocalgroupdisk/rucio/user/schae/e4/a8/user.schae.15490773.EXT0._000014.DAOD_EXOT5.test.pool.root'
p405
aS'root://fax.mwt2.org:1094//pnfs/uchicago.edu/atlaslocalgroupdisk/rucio/user/schae/94/6c/user.schae.15490773.EXT0._000015.DAOD_EXOT5.test.pool.root'
p406
aS'root://fax.mwt2.org:1094//pnfs/uchicago.edu/atlaslocalgroupdisk/rucio/user/schae/6c/19/user.schae.15490773.EXT0._000016.DAOD_EXOT5.test.pool.root'
p407
aS'root://fax.mwt2.org:1094//pnfs/uchicago.edu/atlaslocalgroupdisk/rucio/user/schae/77/d0/user.schae.15490773.EXT0._000017.DAOD_EXOT5.test.pool.root'
p408
aS'root://fax.mwt2.org:1094//pnfs/uchicago.edu/atlaslocalgroupdisk/rucio/user/schae/b1/7b/user.schae.15490773.EXT0._000018.DAOD_EXOT5.test.pool.root'
p409
aS'root://fax.mwt2.org:1094//pnfs/uchicago.edu/atlaslocalgroupdisk/rucio/user/schae/53/3b/user.schae.15490773.EXT0._000019.DAOD_EXOT5.test.pool.root'
p410
aS'root://fax.mwt2.org:1094//pnfs/uchicago.edu/atlaslocalgroupdisk/rucio/user/schae/64/bb/user.schae.15490773.EXT0._000020.DAOD_EXOT5.test.pool.root'
p411
aS'root://fax.mwt2.org:1094//pnfs/uchicago.edu/atlaslocalgroupdisk/rucio/user/schae/c1/98/user.schae.15490773.EXT0._000021.DAOD_EXOT5.test.pool.root'
p412
aS'root://fax.mwt2.org:1094//pnfs/uchicago.edu/atlaslocalgroupdisk/rucio/user/schae/66/3a/user.schae.15490773.EXT0._000022.DAOD_EXOT5.test.pool.root'
p413
aS'root://fax.mwt2.org:1094//pnfs/uchicago.edu/atlaslocalgroupdisk/rucio/user/schae/c2/11/user.schae.15490773.EXT0._000023.DAOD_EXOT5.test.pool.root'
p414
aS'root://fax.mwt2.org:1094//pnfs/uchicago.edu/atlaslocalgroupdisk/rucio/user/schae/9f/8c/user.schae.15490773.EXT0._000024.DAOD_EXOT5.test.pool.root'
p415
aS'root://fax.mwt2.org:1094//pnfs/uchicago.edu/atlaslocalgroupdisk/rucio/user/schae/44/4c/user.schae.15490773.EXT0._000025.DAOD_EXOT5.test.pool.root'
p416
aS'root://fax.mwt2.org:1094//pnfs/uchicago.edu/atlaslocalgroupdisk/rucio/user/schae/39/60/user.schae.15490773.EXT0._000026.DAOD_EXOT5.test.pool.root'
p417
aS'root://fax.mwt2.org:1094//pnfs/uchicago.edu/atlaslocalgroupdisk/rucio/user/schae/18/29/user.schae.15490773.EXT0._000027.DAOD_EXOT5.test.pool.root'
p418
aS'root://fax.mwt2.org:1094//pnfs/uchicago.edu/atlaslocalgroupdisk/rucio/user/schae/c5/b1/user.schae.15490773.EXT0._000029.DAOD_EXOT5.test.pool.root'
p419
aS'root://fax.mwt2.org:1094//pnfs/uchicago.edu/atlaslocalgroupdisk/rucio/user/schae/3c/dc/user.schae.15490773.EXT0._000030.DAOD_EXOT5.test.pool.root'
p420
aS'root://fax.mwt2.org:1094//pnfs/uchicago.edu/atlaslocalgroupdisk/rucio/user/schae/1a/45/user.schae.15490773.EXT0._000031.DAOD_EXOT5.test.pool.root'
p421
aS'root://fax.mwt2.org:1094//pnfs/uchicago.edu/atlaslocalgroupdisk/rucio/user/schae/e2/c4/user.schae.15490773.EXT0._000032.DAOD_EXOT5.test.pool.root'
p422
aS'root://fax.mwt2.org:1094//pnfs/uchicago.edu/atlaslocalgroupdisk/rucio/user/schae/21/d0/user.schae.15490773.EXT0._000033.DAOD_EXOT5.test.pool.root'
p423
aS'root://fax.mwt2.org:1094//pnfs/uchicago.edu/atlaslocalgroupdisk/rucio/user/schae/03/73/user.schae.15490773.EXT0._000034.DAOD_EXOT5.test.pool.root'
p424
aS'root://fax.mwt2.org:1094//pnfs/uchicago.edu/atlaslocalgroupdisk/rucio/user/schae/93/82/user.schae.15490773.EXT0._000035.DAOD_EXOT5.test.pool.root'
p425
aS'root://fax.mwt2.org:1094//pnfs/uchicago.edu/atlaslocalgroupdisk/rucio/user/schae/c0/bc/user.schae.15490773.EXT0._000036.DAOD_EXOT5.test.pool.root'
p426
aS'root://fax.mwt2.org:1094//pnfs/uchicago.edu/atlaslocalgroupdisk/rucio/user/schae/4b/f7/user.schae.15490773.EXT0._000037.DAOD_EXOT5.test.pool.root'
p427
aS'root://fax.mwt2.org:1094//pnfs/uchicago.edu/atlaslocalgroupdisk/rucio/user/schae/64/9d/user.schae.15490773.EXT0._000038.DAOD_EXOT5.test.pool.root'
p428
aS'root://fax.mwt2.org:1094//pnfs/uchicago.edu/atlaslocalgroupdisk/rucio/user/schae/0b/3a/user.schae.15490773.EXT0._000039.DAOD_EXOT5.test.pool.root'
p429
aS'root://fax.mwt2.org:1094//pnfs/uchicago.edu/atlaslocalgroupdisk/rucio/user/schae/94/1a/user.schae.15490773.EXT0._000040.DAOD_EXOT5.test.pool.root'
p430
aS'root://fax.mwt2.org:1094//pnfs/uchicago.edu/atlaslocalgroupdisk/rucio/user/schae/c8/8a/user.schae.15490773.EXT0._000041.DAOD_EXOT5.test.pool.root'
p431
aS'root://fax.mwt2.org:1094//pnfs/uchicago.edu/atlaslocalgroupdisk/rucio/user/schae/77/a9/user.schae.15490773.EXT0._000042.DAOD_EXOT5.test.pool.root'
p432
aS'root://fax.mwt2.org:1094//pnfs/uchicago.edu/atlaslocalgroupdisk/rucio/user/schae/b6/ef/user.schae.15490773.EXT0._000043.DAOD_EXOT5.test.pool.root'
p433
aS'root://fax.mwt2.org:1094//pnfs/uchicago.edu/atlaslocalgroupdisk/rucio/user/schae/81/18/user.schae.15490773.EXT0._000044.DAOD_EXOT5.test.pool.root'
p434
aS'root://fax.mwt2.org:1094//pnfs/uchicago.edu/atlaslocalgroupdisk/rucio/user/schae/dc/83/user.schae.15490773.EXT0._000045.DAOD_EXOT5.test.pool.root'
p435
aS'root://fax.mwt2.org:1094//pnfs/uchicago.edu/atlaslocalgroupdisk/rucio/user/schae/19/92/user.schae.15490773.EXT0._000046.DAOD_EXOT5.test.pool.root'
p436
aS'root://fax.mwt2.org:1094//pnfs/uchicago.edu/atlaslocalgroupdisk/rucio/user/schae/15/9a/user.schae.15490773.EXT0._000047.DAOD_EXOT5.test.pool.root'
p437
aS'root://fax.mwt2.org:1094//pnfs/uchicago.edu/atlaslocalgroupdisk/rucio/user/schae/de/87/user.schae.15490773.EXT0._000048.DAOD_EXOT5.test.pool.root'
p438
aS'root://fax.mwt2.org:1094//pnfs/uchicago.edu/atlaslocalgroupdisk/rucio/user/schae/53/87/user.schae.15490773.EXT0._000049.DAOD_EXOT5.test.pool.root'
p439
aS'root://fax.mwt2.org:1094//pnfs/uchicago.edu/atlaslocalgroupdisk/rucio/user/schae/a6/3c/user.schae.15490773.EXT0._000050.DAOD_EXOT5.test.pool.root'
p440
aS'root://fax.mwt2.org:1094//pnfs/uchicago.edu/atlaslocalgroupdisk/rucio/user/schae/50/4e/user.schae.15490773.EXT0._000051.DAOD_EXOT5.test.pool.root'
p441
aS'root://fax.mwt2.org:1094//pnfs/uchicago.edu/atlaslocalgroupdisk/rucio/user/schae/4c/13/user.schae.15490773.EXT0._000052.DAOD_EXOT5.test.pool.root'
p442
aS'root://fax.mwt2.org:1094//pnfs/uchicago.edu/atlaslocalgroupdisk/rucio/user/schae/fd/3f/user.schae.15490773.EXT0._000053.DAOD_EXOT5.test.pool.root'
p443
aS'root://fax.mwt2.org:1094//pnfs/uchicago.edu/atlaslocalgroupdisk/rucio/user/schae/fe/9e/user.schae.15490773.EXT0._000054.DAOD_EXOT5.test.pool.root'
p444
aS'root://fax.mwt2.org:1094//pnfs/uchicago.edu/atlaslocalgroupdisk/rucio/user/schae/55/98/user.schae.15490773.EXT0._000055.DAOD_EXOT5.test.pool.root'
p445
aS'root://fax.mwt2.org:1094//pnfs/uchicago.edu/atlaslocalgroupdisk/rucio/user/schae/2a/ac/user.schae.15490773.EXT0._000056.DAOD_EXOT5.test.pool.root'
p446
aS'root://fax.mwt2.org:1094//pnfs/uchicago.edu/atlaslocalgroupdisk/rucio/user/schae/55/76/user.schae.15490773.EXT0._000057.DAOD_EXOT5.test.pool.root'
p447
aS'root://fax.mwt2.org:1094//pnfs/uchicago.edu/atlaslocalgroupdisk/rucio/user/schae/58/f5/user.schae.15490773.EXT0._000058.DAOD_EXOT5.test.pool.root'
p448
aS'root://fax.mwt2.org:1094//pnfs/uchicago.edu/atlaslocalgroupdisk/rucio/user/schae/af/79/user.schae.15490773.EXT0._000059.DAOD_EXOT5.test.pool.root'
p449
aS'root://fax.mwt2.org:1094//pnfs/uchicago.edu/atlaslocalgroupdisk/rucio/user/schae/62/09/user.schae.15490773.EXT0._000060.DAOD_EXOT5.test.pool.root'
p450
aS'root://fax.mwt2.org:1094//pnfs/uchicago.edu/atlaslocalgroupdisk/rucio/user/schae/9d/64/user.schae.15490773.EXT0._000061.DAOD_EXOT5.test.pool.root'
p451
aS'root://fax.mwt2.org:1094//pnfs/uchicago.edu/atlaslocalgroupdisk/rucio/user/schae/e8/9a/user.schae.15490773.EXT0._000062.DAOD_EXOT5.test.pool.root'
p452
aS'root://fax.mwt2.org:1094//pnfs/uchicago.edu/atlaslocalgroupdisk/rucio/user/schae/b4/21/user.schae.15490773.EXT0._000063.DAOD_EXOT5.test.pool.root'
p453
aS'root://fax.mwt2.org:1094//pnfs/uchicago.edu/atlaslocalgroupdisk/rucio/user/schae/69/9f/user.schae.15490773.EXT0._000064.DAOD_EXOT5.test.pool.root'
p454
aS'root://fax.mwt2.org:1094//pnfs/uchicago.edu/atlaslocalgroupdisk/rucio/user/schae/e0/37/user.schae.15490773.EXT0._000065.DAOD_EXOT5.test.pool.root'
p455
aS'root://fax.mwt2.org:1094//pnfs/uchicago.edu/atlaslocalgroupdisk/rucio/user/schae/a2/e7/user.schae.15490773.EXT0._000066.DAOD_EXOT5.test.pool.root'
p456
aS'root://fax.mwt2.org:1094//pnfs/uchicago.edu/atlaslocalgroupdisk/rucio/user/schae/bf/9f/user.schae.15490773.EXT0._000067.DAOD_EXOT5.test.pool.root'
p457
aS'root://fax.mwt2.org:1094//pnfs/uchicago.edu/atlaslocalgroupdisk/rucio/user/schae/90/24/user.schae.15490773.EXT0._000068.DAOD_EXOT5.test.pool.root'
p458
aS'root://fax.mwt2.org:1094//pnfs/uchicago.edu/atlaslocalgroupdisk/rucio/user/schae/72/5d/user.schae.15490773.EXT0._000069.DAOD_EXOT5.test.pool.root'
p459
aS'root://fax.mwt2.org:1094//pnfs/uchicago.edu/atlaslocalgroupdisk/rucio/user/schae/04/c2/user.schae.15490773.EXT0._000070.DAOD_EXOT5.test.pool.root'
p460
aS'root://fax.mwt2.org:1094//pnfs/uchicago.edu/atlaslocalgroupdisk/rucio/user/schae/88/9c/user.schae.15490773.EXT0._000071.DAOD_EXOT5.test.pool.root'
p461
aS'root://fax.mwt2.org:1094//pnfs/uchicago.edu/atlaslocalgroupdisk/rucio/user/schae/8c/68/user.schae.15490773.EXT0._000072.DAOD_EXOT5.test.pool.root'
p462
aS'root://fax.mwt2.org:1094//pnfs/uchicago.edu/atlaslocalgroupdisk/rucio/user/schae/a6/e3/user.schae.15490773.EXT0._000073.DAOD_EXOT5.test.pool.root.2'
p463
aS'root://fax.mwt2.org:1094//pnfs/uchicago.edu/atlaslocalgroupdisk/rucio/user/schae/17/90/user.schae.15490773.EXT0._000074.DAOD_EXOT5.test.pool.root'
p464
aS'root://fax.mwt2.org:1094//pnfs/uchicago.edu/atlaslocalgroupdisk/rucio/user/schae/ed/30/user.schae.15490773.EXT0._000075.DAOD_EXOT5.test.pool.root'
p465
aS'root://fax.mwt2.org:1094//pnfs/uchicago.edu/atlaslocalgroupdisk/rucio/user/schae/4b/e4/user.schae.15490773.EXT0._000076.DAOD_EXOT5.test.pool.root'
p466
aS'root://fax.mwt2.org:1094//pnfs/uchicago.edu/atlaslocalgroupdisk/rucio/user/schae/81/18/user.schae.15490773.EXT0._000077.DAOD_EXOT5.test.pool.root'
p467
aS'root://fax.mwt2.org:1094//pnfs/uchicago.edu/atlaslocalgroupdisk/rucio/user/schae/05/a8/user.schae.15490773.EXT0._000078.DAOD_EXOT5.test.pool.root'
p468
aS'root://fax.mwt2.org:1094//pnfs/uchicago.edu/atlaslocalgroupdisk/rucio/user/schae/83/16/user.schae.15490773.EXT0._000079.DAOD_EXOT5.test.pool.root'
p469
aS'root://fax.mwt2.org:1094//pnfs/uchicago.edu/atlaslocalgroupdisk/rucio/user/schae/c5/77/user.schae.15490773.EXT0._000080.DAOD_EXOT5.test.pool.root'
p470
aS'root://fax.mwt2.org:1094//pnfs/uchicago.edu/atlaslocalgroupdisk/rucio/user/schae/c8/2f/user.schae.15490773.EXT0._000081.DAOD_EXOT5.test.pool.root'
p471
aS'root://fax.mwt2.org:1094//pnfs/uchicago.edu/atlaslocalgroupdisk/rucio/user/schae/0c/bb/user.schae.15490773.EXT0._000082.DAOD_EXOT5.test.pool.root'
p472
aS'root://fax.mwt2.org:1094//pnfs/uchicago.edu/atlaslocalgroupdisk/rucio/user/schae/b9/cb/user.schae.15490773.EXT0._000083.DAOD_EXOT5.test.pool.root'
p473
aS'root://fax.mwt2.org:1094//pnfs/uchicago.edu/atlaslocalgroupdisk/rucio/user/schae/c6/ba/user.schae.15490773.EXT0._000084.DAOD_EXOT5.test.pool.root'
p474
aS'root://fax.mwt2.org:1094//pnfs/uchicago.edu/atlaslocalgroupdisk/rucio/user/schae/26/38/user.schae.15490773.EXT0._000085.DAOD_EXOT5.test.pool.root'
p475
aS'root://fax.mwt2.org:1094//pnfs/uchicago.edu/atlaslocalgroupdisk/rucio/user/schae/0e/e2/user.schae.15490773.EXT0._000086.DAOD_EXOT5.test.pool.root'
p476
aS'root://fax.mwt2.org:1094//pnfs/uchicago.edu/atlaslocalgroupdisk/rucio/user/schae/fc/43/user.schae.15490773.EXT0._000087.DAOD_EXOT5.test.pool.root'
p477
aS'root://fax.mwt2.org:1094//pnfs/uchicago.edu/atlaslocalgroupdisk/rucio/user/schae/02/09/user.schae.15490773.EXT0._000088.DAOD_EXOT5.test.pool.root'
p478
aS'root://fax.mwt2.org:1094//pnfs/uchicago.edu/atlaslocalgroupdisk/rucio/user/schae/5a/54/user.schae.15490773.EXT0._000089.DAOD_EXOT5.test.pool.root'
p479
aS'root://fax.mwt2.org:1094//pnfs/uchicago.edu/atlaslocalgroupdisk/rucio/user/schae/a3/6e/user.schae.15490773.EXT0._000090.DAOD_EXOT5.test.pool.root'
p480
aS'root://fax.mwt2.org:1094//pnfs/uchicago.edu/atlaslocalgroupdisk/rucio/user/schae/4e/a4/user.schae.15490773.EXT0._000091.DAOD_EXOT5.test.pool.root'
p481
aS'root://fax.mwt2.org:1094//pnfs/uchicago.edu/atlaslocalgroupdisk/rucio/user/schae/65/7b/user.schae.15490773.EXT0._000092.DAOD_EXOT5.test.pool.root'
p482
aS'root://fax.mwt2.org:1094//pnfs/uchicago.edu/atlaslocalgroupdisk/rucio/user/schae/a3/96/user.schae.15490773.EXT0._000093.DAOD_EXOT5.test.pool.root'
p483
aS'root://fax.mwt2.org:1094//pnfs/uchicago.edu/atlaslocalgroupdisk/rucio/user/schae/14/b1/user.schae.15490773.EXT0._000094.DAOD_EXOT5.test.pool.root'
p484
aS'root://fax.mwt2.org:1094//pnfs/uchicago.edu/atlaslocalgroupdisk/rucio/user/schae/dd/d4/user.schae.15490773.EXT0._000095.DAOD_EXOT5.test.pool.root'
p485
aS'root://fax.mwt2.org:1094//pnfs/uchicago.edu/atlaslocalgroupdisk/rucio/user/schae/aa/a5/user.schae.15490773.EXT0._000096.DAOD_EXOT5.test.pool.root'
p486
aS'root://fax.mwt2.org:1094//pnfs/uchicago.edu/atlaslocalgroupdisk/rucio/user/schae/e8/ac/user.schae.15490773.EXT0._000097.DAOD_EXOT5.test.pool.root'
p487
aS'root://fax.mwt2.org:1094//pnfs/uchicago.edu/atlaslocalgroupdisk/rucio/user/schae/8f/90/user.schae.15490773.EXT0._000098.DAOD_EXOT5.test.pool.root'
p488
aS'root://fax.mwt2.org:1094//pnfs/uchicago.edu/atlaslocalgroupdisk/rucio/user/schae/07/e4/user.schae.15490773.EXT0._000099.DAOD_EXOT5.test.pool.root'
p489
aS'root://fax.mwt2.org:1094//pnfs/uchicago.edu/atlaslocalgroupdisk/rucio/user/schae/df/61/user.schae.15490773.EXT0._000100.DAOD_EXOT5.test.pool.root'
p490
aS'root://fax.mwt2.org:1094//pnfs/uchicago.edu/atlaslocalgroupdisk/rucio/user/schae/b2/4b/user.schae.15490773.EXT0._000101.DAOD_EXOT5.test.pool.root'
p491
aS'root://fax.mwt2.org:1094//pnfs/uchicago.edu/atlaslocalgroupdisk/rucio/user/schae/45/72/user.schae.15490773.EXT0._000102.DAOD_EXOT5.test.pool.root'
p492
aS'root://fax.mwt2.org:1094//pnfs/uchicago.edu/atlaslocalgroupdisk/rucio/user/schae/d2/cb/user.schae.15490773.EXT0._000103.DAOD_EXOT5.test.pool.root'
p493
aS'root://fax.mwt2.org:1094//pnfs/uchicago.edu/atlaslocalgroupdisk/rucio/user/schae/10/ea/user.schae.15490773.EXT0._000104.DAOD_EXOT5.test.pool.root'
p494
aS'root://fax.mwt2.org:1094//pnfs/uchicago.edu/atlaslocalgroupdisk/rucio/user/schae/d3/a1/user.schae.15490773.EXT0._000105.DAOD_EXOT5.test.pool.root'
p495
aS'root://fax.mwt2.org:1094//pnfs/uchicago.edu/atlaslocalgroupdisk/rucio/user/schae/60/57/user.schae.15490773.EXT0._000106.DAOD_EXOT5.test.pool.root'
p496
aS'root://fax.mwt2.org:1094//pnfs/uchicago.edu/atlaslocalgroupdisk/rucio/user/schae/c7/3c/user.schae.15490773.EXT0._000107.DAOD_EXOT5.test.pool.root'
p497
aS'root://fax.mwt2.org:1094//pnfs/uchicago.edu/atlaslocalgroupdisk/rucio/user/schae/6f/a4/user.schae.15490773.EXT0._000108.DAOD_EXOT5.test.pool.root'
p498
aS'root://fax.mwt2.org:1094//pnfs/uchicago.edu/atlaslocalgroupdisk/rucio/user/schae/15/c0/user.schae.15490773.EXT0._000109.DAOD_EXOT5.test.pool.root'
p499
aS'root://fax.mwt2.org:1094//pnfs/uchicago.edu/atlaslocalgroupdisk/rucio/user/schae/c8/9d/user.schae.15490773.EXT0._000110.DAOD_EXOT5.test.pool.root'
p500
aS'root://fax.mwt2.org:1094//pnfs/uchicago.edu/atlaslocalgroupdisk/rucio/user/schae/4d/8d/user.schae.15490773.EXT0._000111.DAOD_EXOT5.test.pool.root'
p501
aS'root://fax.mwt2.org:1094//pnfs/uchicago.edu/atlaslocalgroupdisk/rucio/user/schae/50/71/user.schae.15490773.EXT0._000112.DAOD_EXOT5.test.pool.root'
p502
aS'root://fax.mwt2.org:1094//pnfs/uchicago.edu/atlaslocalgroupdisk/rucio/user/schae/d5/c1/user.schae.15490773.EXT0._000113.DAOD_EXOT5.test.pool.root'
p503
aS'root://fax.mwt2.org:1094//pnfs/uchicago.edu/atlaslocalgroupdisk/rucio/user/schae/b0/cb/user.schae.15490773.EXT0._000114.DAOD_EXOT5.test.pool.root'
p504
aS'root://fax.mwt2.org:1094//pnfs/uchicago.edu/atlaslocalgroupdisk/rucio/user/schae/da/45/user.schae.15490773.EXT0._000115.DAOD_EXOT5.test.pool.root'
p505
aS'root://fax.mwt2.org:1094//pnfs/uchicago.edu/atlaslocalgroupdisk/rucio/user/schae/52/42/user.schae.15490773.EXT0._000116.DAOD_EXOT5.test.pool.root'
p506
aS'root://fax.mwt2.org:1094//pnfs/uchicago.edu/atlaslocalgroupdisk/rucio/user/schae/29/fb/user.schae.15490773.EXT0._000117.DAOD_EXOT5.test.pool.root'
p507
aS'root://fax.mwt2.org:1094//pnfs/uchicago.edu/atlaslocalgroupdisk/rucio/user/schae/97/2a/user.schae.15490773.EXT0._000118.DAOD_EXOT5.test.pool.root'
p508
aS'root://fax.mwt2.org:1094//pnfs/uchicago.edu/atlaslocalgroupdisk/rucio/user/schae/97/c1/user.schae.15490773.EXT0._000119.DAOD_EXOT5.test.pool.root'
p509
aS'root://fax.mwt2.org:1094//pnfs/uchicago.edu/atlaslocalgroupdisk/rucio/user/schae/85/fd/user.schae.15490773.EXT0._000120.DAOD_EXOT5.test.pool.root'
p510
aS'root://fax.mwt2.org:1094//pnfs/uchicago.edu/atlaslocalgroupdisk/rucio/user/schae/12/88/user.schae.15490773.EXT0._000121.DAOD_EXOT5.test.pool.root'
p511
aS'root://fax.mwt2.org:1094//pnfs/uchicago.edu/atlaslocalgroupdisk/rucio/user/schae/b5/07/user.schae.15490773.EXT0._000122.DAOD_EXOT5.test.pool.root'
p512
aS'root://fax.mwt2.org:1094//pnfs/uchicago.edu/atlaslocalgroupdisk/rucio/user/schae/04/ee/user.schae.15490773.EXT0._000123.DAOD_EXOT5.test.pool.root'
p513
aS'root://fax.mwt2.org:1094//pnfs/uchicago.edu/atlaslocalgroupdisk/rucio/user/schae/af/c5/user.schae.15490773.EXT0._000124.DAOD_EXOT5.test.pool.root'
p514
aS'root://fax.mwt2.org:1094//pnfs/uchicago.edu/atlaslocalgroupdisk/rucio/user/schae/15/62/user.schae.15490773.EXT0._000125.DAOD_EXOT5.test.pool.root'
p515
aS'root://fax.mwt2.org:1094//pnfs/uchicago.edu/atlaslocalgroupdisk/rucio/user/schae/b0/a5/user.schae.15490773.EXT0._000126.DAOD_EXOT5.test.pool.root'
p516
aS'root://fax.mwt2.org:1094//pnfs/uchicago.edu/atlaslocalgroupdisk/rucio/user/schae/b8/b4/user.schae.15490773.EXT0._000127.DAOD_EXOT5.test.pool.root'
p517
aS'root://fax.mwt2.org:1094//pnfs/uchicago.edu/atlaslocalgroupdisk/rucio/user/schae/ef/82/user.schae.15490773.EXT0._000128.DAOD_EXOT5.test.pool.root'
p518
aS'root://fax.mwt2.org:1094//pnfs/uchicago.edu/atlaslocalgroupdisk/rucio/user/schae/75/98/user.schae.15490773.EXT0._000129.DAOD_EXOT5.test.pool.root'
p519
aS'root://fax.mwt2.org:1094//pnfs/uchicago.edu/atlaslocalgroupdisk/rucio/user/schae/86/e3/user.schae.15490773.EXT0._000130.DAOD_EXOT5.test.pool.root'
p520
aS'root://fax.mwt2.org:1094//pnfs/uchicago.edu/atlaslocalgroupdisk/rucio/user/schae/63/90/user.schae.15490773.EXT0._000131.DAOD_EXOT5.test.pool.root'
p521
aS'root://fax.mwt2.org:1094//pnfs/uchicago.edu/atlaslocalgroupdisk/rucio/user/schae/3e/7b/user.schae.15490773.EXT0._000132.DAOD_EXOT5.test.pool.root'
p522
aS'root://fax.mwt2.org:1094//pnfs/uchicago.edu/atlaslocalgroupdisk/rucio/user/schae/29/6f/user.schae.15490773.EXT0._000133.DAOD_EXOT5.test.pool.root'
p523
aS'root://fax.mwt2.org:1094//pnfs/uchicago.edu/atlaslocalgroupdisk/rucio/user/schae/08/21/user.schae.15490773.EXT0._000134.DAOD_EXOT5.test.pool.root'
p524
aS'root://fax.mwt2.org:1094//pnfs/uchicago.edu/atlaslocalgroupdisk/rucio/user/schae/8e/5a/user.schae.15490773.EXT0._000135.DAOD_EXOT5.test.pool.root'
p525
aS'root://fax.mwt2.org:1094//pnfs/uchicago.edu/atlaslocalgroupdisk/rucio/user/schae/32/d5/user.schae.15490773.EXT0._000136.DAOD_EXOT5.test.pool.root'
p526
aS'root://fax.mwt2.org:1094//pnfs/uchicago.edu/atlaslocalgroupdisk/rucio/user/schae/dc/d8/user.schae.15490773.EXT0._000137.DAOD_EXOT5.test.pool.root'
p527
aS'root://fax.mwt2.org:1094//pnfs/uchicago.edu/atlaslocalgroupdisk/rucio/user/schae/76/03/user.schae.15490773.EXT0._000138.DAOD_EXOT5.test.pool.root'
p528
aS'root://fax.mwt2.org:1094//pnfs/uchicago.edu/atlaslocalgroupdisk/rucio/user/schae/11/af/user.schae.15490773.EXT0._000139.DAOD_EXOT5.test.pool.root'
p529
aS'root://fax.mwt2.org:1094//pnfs/uchicago.edu/atlaslocalgroupdisk/rucio/user/schae/e4/7f/user.schae.15490773.EXT0._000140.DAOD_EXOT5.test.pool.root'
p530
aS'root://fax.mwt2.org:1094//pnfs/uchicago.edu/atlaslocalgroupdisk/rucio/user/schae/7b/4b/user.schae.15490773.EXT0._000141.DAOD_EXOT5.test.pool.root'
p531
aS'root://fax.mwt2.org:1094//pnfs/uchicago.edu/atlaslocalgroupdisk/rucio/user/schae/87/ad/user.schae.15490773.EXT0._000142.DAOD_EXOT5.test.pool.root'
p532
aS'root://fax.mwt2.org:1094//pnfs/uchicago.edu/atlaslocalgroupdisk/rucio/user/schae/f8/ee/user.schae.15490773.EXT0._000143.DAOD_EXOT5.test.pool.root'
p533
aS'root://fax.mwt2.org:1094//pnfs/uchicago.edu/atlaslocalgroupdisk/rucio/user/schae/65/0b/user.schae.15490773.EXT0._000144.DAOD_EXOT5.test.pool.root'
p534
aS'root://fax.mwt2.org:1094//pnfs/uchicago.edu/atlaslocalgroupdisk/rucio/user/schae/43/a7/user.schae.15490773.EXT0._000145.DAOD_EXOT5.test.pool.root'
p535
aS'root://fax.mwt2.org:1094//pnfs/uchicago.edu/atlaslocalgroupdisk/rucio/user/schae/03/4a/user.schae.15490773.EXT0._000146.DAOD_EXOT5.test.pool.root'
p536
aS'root://fax.mwt2.org:1094//pnfs/uchicago.edu/atlaslocalgroupdisk/rucio/user/schae/77/27/user.schae.15490773.EXT0._000147.DAOD_EXOT5.test.pool.root'
p537
aS'root://fax.mwt2.org:1094//pnfs/uchicago.edu/atlaslocalgroupdisk/rucio/user/schae/23/40/user.schae.15490773.EXT0._000148.DAOD_EXOT5.test.pool.root'
p538
aS'root://fax.mwt2.org:1094//pnfs/uchicago.edu/atlaslocalgroupdisk/rucio/user/schae/fc/d8/user.schae.15490773.EXT0._000149.DAOD_EXOT5.test.pool.root'
p539
aS'root://fax.mwt2.org:1094//pnfs/uchicago.edu/atlaslocalgroupdisk/rucio/user/schae/5c/cb/user.schae.15490773.EXT0._000150.DAOD_EXOT5.test.pool.root'
p540
aS'root://fax.mwt2.org:1094//pnfs/uchicago.edu/atlaslocalgroupdisk/rucio/user/schae/17/c7/user.schae.15490773.EXT0._000151.DAOD_EXOT5.test.pool.root'
p541
aS'root://fax.mwt2.org:1094//pnfs/uchicago.edu/atlaslocalgroupdisk/rucio/user/schae/54/38/user.schae.15490773.EXT0._000152.DAOD_EXOT5.test.pool.root'
p542
aS'root://fax.mwt2.org:1094//pnfs/uchicago.edu/atlaslocalgroupdisk/rucio/user/schae/0d/a1/user.schae.15490773.EXT0._000153.DAOD_EXOT5.test.pool.root'
p543
aS'root://fax.mwt2.org:1094//pnfs/uchicago.edu/atlaslocalgroupdisk/rucio/user/schae/40/2c/user.schae.15490773.EXT0._000154.DAOD_EXOT5.test.pool.root'
p544
aS'root://fax.mwt2.org:1094//pnfs/uchicago.edu/atlaslocalgroupdisk/rucio/user/schae/1b/b0/user.schae.15490773.EXT0._000156.DAOD_EXOT5.test.pool.root'
p545
aS'root://fax.mwt2.org:1094//pnfs/uchicago.edu/atlaslocalgroupdisk/rucio/user/schae/ab/41/user.schae.15490773.EXT0._000157.DAOD_EXOT5.test.pool.root'
p546
aS'root://fax.mwt2.org:1094//pnfs/uchicago.edu/atlaslocalgroupdisk/rucio/user/schae/7b/20/user.schae.15490773.EXT0._000158.DAOD_EXOT5.test.pool.root'
p547
aS'root://fax.mwt2.org:1094//pnfs/uchicago.edu/atlaslocalgroupdisk/rucio/user/schae/00/4e/user.schae.15490773.EXT0._000159.DAOD_EXOT5.test.pool.root'
p548
aS'root://fax.mwt2.org:1094//pnfs/uchicago.edu/atlaslocalgroupdisk/rucio/user/schae/8c/8d/user.schae.15490773.EXT0._000160.DAOD_EXOT5.test.pool.root'
p549
aS'root://fax.mwt2.org:1094//pnfs/uchicago.edu/atlaslocalgroupdisk/rucio/user/schae/a9/88/user.schae.15490773.EXT0._000161.DAOD_EXOT5.test.pool.root'
p550
aS'root://fax.mwt2.org:1094//pnfs/uchicago.edu/atlaslocalgroupdisk/rucio/user/schae/b6/01/user.schae.15490773.EXT0._000162.DAOD_EXOT5.test.pool.root'
p551
aS'root://fax.mwt2.org:1094//pnfs/uchicago.edu/atlaslocalgroupdisk/rucio/user/schae/9b/d4/user.schae.15490773.EXT0._000163.DAOD_EXOT5.test.pool.root'
p552
aS'root://fax.mwt2.org:1094//pnfs/uchicago.edu/atlaslocalgroupdisk/rucio/user/schae/91/95/user.schae.15490773.EXT0._000164.DAOD_EXOT5.test.pool.root'
p553
aS'root://fax.mwt2.org:1094//pnfs/uchicago.edu/atlaslocalgroupdisk/rucio/user/schae/75/e2/user.schae.15490773.EXT0._000165.DAOD_EXOT5.test.pool.root'
p554
aS'root://fax.mwt2.org:1094//pnfs/uchicago.edu/atlaslocalgroupdisk/rucio/user/schae/11/43/user.schae.15490773.EXT0._000166.DAOD_EXOT5.test.pool.root'
p555
aS'root://fax.mwt2.org:1094//pnfs/uchicago.edu/atlaslocalgroupdisk/rucio/user/schae/21/af/user.schae.15490773.EXT0._000167.DAOD_EXOT5.test.pool.root'
p556
aS'root://fax.mwt2.org:1094//pnfs/uchicago.edu/atlaslocalgroupdisk/rucio/user/schae/51/06/user.schae.15490773.EXT0._000168.DAOD_EXOT5.test.pool.root'
p557
aS'root://fax.mwt2.org:1094//pnfs/uchicago.edu/atlaslocalgroupdisk/rucio/user/schae/78/6c/user.schae.15490773.EXT0._000169.DAOD_EXOT5.test.pool.root'
p558
aS'root://fax.mwt2.org:1094//pnfs/uchicago.edu/atlaslocalgroupdisk/rucio/user/schae/90/90/user.schae.15490773.EXT0._000170.DAOD_EXOT5.test.pool.root'
p559
aS'root://fax.mwt2.org:1094//pnfs/uchicago.edu/atlaslocalgroupdisk/rucio/user/schae/b1/70/user.schae.15490773.EXT0._000171.DAOD_EXOT5.test.pool.root'
p560
aS'root://fax.mwt2.org:1094//pnfs/uchicago.edu/atlaslocalgroupdisk/rucio/user/schae/c2/d2/user.schae.15490773.EXT0._000172.DAOD_EXOT5.test.pool.root'
p561
aS'root://fax.mwt2.org:1094//pnfs/uchicago.edu/atlaslocalgroupdisk/rucio/user/schae/98/74/user.schae.15490773.EXT0._000173.DAOD_EXOT5.test.pool.root'
p562
aS'root://fax.mwt2.org:1094//pnfs/uchicago.edu/atlaslocalgroupdisk/rucio/user/schae/23/70/user.schae.15490773.EXT0._000174.DAOD_EXOT5.test.pool.root'
p563
aS'root://fax.mwt2.org:1094//pnfs/uchicago.edu/atlaslocalgroupdisk/rucio/user/schae/ef/a2/user.schae.15490773.EXT0._000175.DAOD_EXOT5.test.pool.root'
p564
aS'root://fax.mwt2.org:1094//pnfs/uchicago.edu/atlaslocalgroupdisk/rucio/user/schae/5e/37/user.schae.15490773.EXT0._000176.DAOD_EXOT5.test.pool.root'
p565
aS'root://fax.mwt2.org:1094//pnfs/uchicago.edu/atlaslocalgroupdisk/rucio/user/schae/63/89/user.schae.15490773.EXT0._000177.DAOD_EXOT5.test.pool.root'
p566
aS'root://fax.mwt2.org:1094//pnfs/uchicago.edu/atlaslocalgroupdisk/rucio/user/schae/f2/25/user.schae.15490773.EXT0._000178.DAOD_EXOT5.test.pool.root'
p567
aS'root://fax.mwt2.org:1094//pnfs/uchicago.edu/atlaslocalgroupdisk/rucio/user/schae/ff/3d/user.schae.15490773.EXT0._000179.DAOD_EXOT5.test.pool.root'
p568
aS'root://fax.mwt2.org:1094//pnfs/uchicago.edu/atlaslocalgroupdisk/rucio/user/schae/96/09/user.schae.15490773.EXT0._000180.DAOD_EXOT5.test.pool.root'
p569
aS'root://fax.mwt2.org:1094//pnfs/uchicago.edu/atlaslocalgroupdisk/rucio/user/schae/2d/ac/user.schae.15490773.EXT0._000181.DAOD_EXOT5.test.pool.root'
p570
aS'root://fax.mwt2.org:1094//pnfs/uchicago.edu/atlaslocalgroupdisk/rucio/user/schae/a1/8d/user.schae.15490773.EXT0._000182.DAOD_EXOT5.test.pool.root'
p571
aS'root://fax.mwt2.org:1094//pnfs/uchicago.edu/atlaslocalgroupdisk/rucio/user/schae/2d/65/user.schae.15490773.EXT0._000183.DAOD_EXOT5.test.pool.root'
p572
aS'root://fax.mwt2.org:1094//pnfs/uchicago.edu/atlaslocalgroupdisk/rucio/user/schae/71/6a/user.schae.15490773.EXT0._000184.DAOD_EXOT5.test.pool.root.2'
p573
aS'root://fax.mwt2.org:1094//pnfs/uchicago.edu/atlaslocalgroupdisk/rucio/user/schae/d4/93/user.schae.15490773.EXT0._000185.DAOD_EXOT5.test.pool.root'
p574
aS'root://fax.mwt2.org:1094//pnfs/uchicago.edu/atlaslocalgroupdisk/rucio/user/schae/f6/4d/user.schae.15490773.EXT0._000186.DAOD_EXOT5.test.pool.root'
p575
aS'root://fax.mwt2.org:1094//pnfs/uchicago.edu/atlaslocalgroupdisk/rucio/user/schae/cd/33/user.schae.15490773.EXT0._000187.DAOD_EXOT5.test.pool.root'
p576
aS'root://fax.mwt2.org:1094//pnfs/uchicago.edu/atlaslocalgroupdisk/rucio/user/schae/d3/1c/user.schae.15490773.EXT0._000188.DAOD_EXOT5.test.pool.root'
p577
aS'root://fax.mwt2.org:1094//pnfs/uchicago.edu/atlaslocalgroupdisk/rucio/user/schae/4c/7a/user.schae.15490773.EXT0._000189.DAOD_EXOT5.test.pool.root'
p578
aS'root://fax.mwt2.org:1094//pnfs/uchicago.edu/atlaslocalgroupdisk/rucio/user/schae/c9/20/user.schae.15490773.EXT0._000190.DAOD_EXOT5.test.pool.root'
p579
aS'root://fax.mwt2.org:1094//pnfs/uchicago.edu/atlaslocalgroupdisk/rucio/user/schae/e7/90/user.schae.15490773.EXT0._000191.DAOD_EXOT5.test.pool.root'
p580
aS'root://fax.mwt2.org:1094//pnfs/uchicago.edu/atlaslocalgroupdisk/rucio/user/schae/12/00/user.schae.15490773.EXT0._000192.DAOD_EXOT5.test.pool.root'
p581
aS'root://fax.mwt2.org:1094//pnfs/uchicago.edu/atlaslocalgroupdisk/rucio/user/schae/62/ec/user.schae.15490773.EXT0._000193.DAOD_EXOT5.test.pool.root'
p582
aS'root://fax.mwt2.org:1094//pnfs/uchicago.edu/atlaslocalgroupdisk/rucio/user/schae/51/b8/user.schae.15490773.EXT0._000194.DAOD_EXOT5.test.pool.root'
p583
aS'root://fax.mwt2.org:1094//pnfs/uchicago.edu/atlaslocalgroupdisk/rucio/user/schae/e3/2c/user.schae.15490773.EXT0._000195.DAOD_EXOT5.test.pool.root'
p584
aS'root://fax.mwt2.org:1094//pnfs/uchicago.edu/atlaslocalgroupdisk/rucio/user/schae/bd/cc/user.schae.15490773.EXT0._000196.DAOD_EXOT5.test.pool.root'
p585
aS'root://fax.mwt2.org:1094//pnfs/uchicago.edu/atlaslocalgroupdisk/rucio/user/schae/49/d5/user.schae.15490773.EXT0._000197.DAOD_EXOT5.test.pool.root'
p586
aS'root://fax.mwt2.org:1094//pnfs/uchicago.edu/atlaslocalgroupdisk/rucio/user/schae/da/6d/user.schae.15490773.EXT0._000198.DAOD_EXOT5.test.pool.root'
p587
aS'root://fax.mwt2.org:1094//pnfs/uchicago.edu/atlaslocalgroupdisk/rucio/user/schae/b7/ef/user.schae.15490773.EXT0._000199.DAOD_EXOT5.test.pool.root'
p588
aS'root://fax.mwt2.org:1094//pnfs/uchicago.edu/atlaslocalgroupdisk/rucio/user/schae/a3/c8/user.schae.15490773.EXT0._000200.DAOD_EXOT5.test.pool.root'
p589
aS'root://fax.mwt2.org:1094//pnfs/uchicago.edu/atlaslocalgroupdisk/rucio/user/schae/a1/12/user.schae.15490773.EXT0._000201.DAOD_EXOT5.test.pool.root'
p590
aS'root://fax.mwt2.org:1094//pnfs/uchicago.edu/atlaslocalgroupdisk/rucio/user/schae/ea/21/user.schae.15490773.EXT0._000202.DAOD_EXOT5.test.pool.root'
p591
aS'root://fax.mwt2.org:1094//pnfs/uchicago.edu/atlaslocalgroupdisk/rucio/user/schae/4d/5d/user.schae.15490773.EXT0._000203.DAOD_EXOT5.test.pool.root'
p592
aS'root://fax.mwt2.org:1094//pnfs/uchicago.edu/atlaslocalgroupdisk/rucio/user/schae/e2/bf/user.schae.15490773.EXT0._000204.DAOD_EXOT5.test.pool.root'
p593
aS'root://fax.mwt2.org:1094//pnfs/uchicago.edu/atlaslocalgroupdisk/rucio/user/schae/ed/7a/user.schae.15490773.EXT0._000205.DAOD_EXOT5.test.pool.root'
p594
aS'root://fax.mwt2.org:1094//pnfs/uchicago.edu/atlaslocalgroupdisk/rucio/user/schae/76/df/user.schae.15490773.EXT0._000206.DAOD_EXOT5.test.pool.root'
p595
aS'root://fax.mwt2.org:1094//pnfs/uchicago.edu/atlaslocalgroupdisk/rucio/user/schae/52/d0/user.schae.15490773.EXT0._000207.DAOD_EXOT5.test.pool.root'
p596
aS'root://fax.mwt2.org:1094//pnfs/uchicago.edu/atlaslocalgroupdisk/rucio/user/schae/cb/7a/user.schae.15490773.EXT0._000208.DAOD_EXOT5.test.pool.root'
p597
aS'root://fax.mwt2.org:1094//pnfs/uchicago.edu/atlaslocalgroupdisk/rucio/user/schae/b8/33/user.schae.15490773.EXT0._000209.DAOD_EXOT5.test.pool.root'
p598
aS'root://fax.mwt2.org:1094//pnfs/uchicago.edu/atlaslocalgroupdisk/rucio/user/schae/64/b6/user.schae.15490773.EXT0._000210.DAOD_EXOT5.test.pool.root'
p599
aS'root://fax.mwt2.org:1094//pnfs/uchicago.edu/atlaslocalgroupdisk/rucio/user/schae/db/3a/user.schae.15490773.EXT0._000211.DAOD_EXOT5.test.pool.root'
p600
aS'root://fax.mwt2.org:1094//pnfs/uchicago.edu/atlaslocalgroupdisk/rucio/user/schae/77/01/user.schae.15490773.EXT0._000212.DAOD_EXOT5.test.pool.root'
p601
aS'root://fax.mwt2.org:1094//pnfs/uchicago.edu/atlaslocalgroupdisk/rucio/user/schae/5d/e6/user.schae.15490773.EXT0._000213.DAOD_EXOT5.test.pool.root'
p602
aS'root://fax.mwt2.org:1094//pnfs/uchicago.edu/atlaslocalgroupdisk/rucio/user/schae/4c/14/user.schae.15490773.EXT0._000214.DAOD_EXOT5.test.pool.root'
p603
aS'root://fax.mwt2.org:1094//pnfs/uchicago.edu/atlaslocalgroupdisk/rucio/user/schae/11/40/user.schae.15490773.EXT0._000215.DAOD_EXOT5.test.pool.root'
p604
aS'root://fax.mwt2.org:1094//pnfs/uchicago.edu/atlaslocalgroupdisk/rucio/user/schae/8c/53/user.schae.15490773.EXT0._000216.DAOD_EXOT5.test.pool.root'
p605
aS'root://fax.mwt2.org:1094//pnfs/uchicago.edu/atlaslocalgroupdisk/rucio/user/schae/78/82/user.schae.15490773.EXT0._000218.DAOD_EXOT5.test.pool.root'
p606
aS'root://fax.mwt2.org:1094//pnfs/uchicago.edu/atlaslocalgroupdisk/rucio/user/schae/24/e5/user.schae.15490773.EXT0._000219.DAOD_EXOT5.test.pool.root'
p607
aS'root://fax.mwt2.org:1094//pnfs/uchicago.edu/atlaslocalgroupdisk/rucio/user/schae/b9/b2/user.schae.15490773.EXT0._000220.DAOD_EXOT5.test.pool.root'
p608
aS'root://fax.mwt2.org:1094//pnfs/uchicago.edu/atlaslocalgroupdisk/rucio/user/schae/52/97/user.schae.15490773.EXT0._000221.DAOD_EXOT5.test.pool.root'
p609
aS'root://fax.mwt2.org:1094//pnfs/uchicago.edu/atlaslocalgroupdisk/rucio/user/schae/67/00/user.schae.15490773.EXT0._000222.DAOD_EXOT5.test.pool.root'
p610
aS'root://fax.mwt2.org:1094//pnfs/uchicago.edu/atlaslocalgroupdisk/rucio/user/schae/ad/55/user.schae.15490773.EXT0._000223.DAOD_EXOT5.test.pool.root'
p611
aS'root://fax.mwt2.org:1094//pnfs/uchicago.edu/atlaslocalgroupdisk/rucio/user/schae/47/3f/user.schae.15490773.EXT0._000224.DAOD_EXOT5.test.pool.root'
p612
aS'root://fax.mwt2.org:1094//pnfs/uchicago.edu/atlaslocalgroupdisk/rucio/user/schae/9f/1a/user.schae.15490773.EXT0._000225.DAOD_EXOT5.test.pool.root'
p613
aS'root://fax.mwt2.org:1094//pnfs/uchicago.edu/atlaslocalgroupdisk/rucio/user/schae/db/47/user.schae.15490773.EXT0._000226.DAOD_EXOT5.test.pool.root'
p614
aS'root://fax.mwt2.org:1094//pnfs/uchicago.edu/atlaslocalgroupdisk/rucio/user/schae/d1/51/user.schae.15490773.EXT0._000227.DAOD_EXOT5.test.pool.root'
p615
aS'root://fax.mwt2.org:1094//pnfs/uchicago.edu/atlaslocalgroupdisk/rucio/user/schae/28/84/user.schae.15490773.EXT0._000228.DAOD_EXOT5.test.pool.root'
p616
aS'root://fax.mwt2.org:1094//pnfs/uchicago.edu/atlaslocalgroupdisk/rucio/user/schae/c4/32/user.schae.15490773.EXT0._000229.DAOD_EXOT5.test.pool.root'
p617
aS'root://fax.mwt2.org:1094//pnfs/uchicago.edu/atlaslocalgroupdisk/rucio/user/schae/2d/d2/user.schae.15490773.EXT0._000230.DAOD_EXOT5.test.pool.root'
p618
aS'root://fax.mwt2.org:1094//pnfs/uchicago.edu/atlaslocalgroupdisk/rucio/user/schae/d7/7a/user.schae.15490773.EXT0._000231.DAOD_EXOT5.test.pool.root'
p619
aS'root://fax.mwt2.org:1094//pnfs/uchicago.edu/atlaslocalgroupdisk/rucio/user/schae/46/d6/user.schae.15490773.EXT0._000232.DAOD_EXOT5.test.pool.root'
p620
aS'root://fax.mwt2.org:1094//pnfs/uchicago.edu/atlaslocalgroupdisk/rucio/user/schae/ba/c8/user.schae.15490773.EXT0._000233.DAOD_EXOT5.test.pool.root'
p621
aS'root://fax.mwt2.org:1094//pnfs/uchicago.edu/atlaslocalgroupdisk/rucio/user/schae/c2/7b/user.schae.15490773.EXT0._000234.DAOD_EXOT5.test.pool.root'
p622
aS'root://fax.mwt2.org:1094//pnfs/uchicago.edu/atlaslocalgroupdisk/rucio/user/schae/4f/d0/user.schae.15490773.EXT0._000235.DAOD_EXOT5.test.pool.root'
p623
aS'root://fax.mwt2.org:1094//pnfs/uchicago.edu/atlaslocalgroupdisk/rucio/user/schae/64/7e/user.schae.15490773.EXT0._000236.DAOD_EXOT5.test.pool.root'
p624
aS'root://fax.mwt2.org:1094//pnfs/uchicago.edu/atlaslocalgroupdisk/rucio/user/schae/bd/fc/user.schae.15490773.EXT0._000237.DAOD_EXOT5.test.pool.root'
p625
aS'root://fax.mwt2.org:1094//pnfs/uchicago.edu/atlaslocalgroupdisk/rucio/user/schae/5e/22/user.schae.15490773.EXT0._000238.DAOD_EXOT5.test.pool.root'
p626
aS'root://fax.mwt2.org:1094//pnfs/uchicago.edu/atlaslocalgroupdisk/rucio/user/schae/dd/91/user.schae.15490773.EXT0._000239.DAOD_EXOT5.test.pool.root'
p627
aS'root://fax.mwt2.org:1094//pnfs/uchicago.edu/atlaslocalgroupdisk/rucio/user/schae/42/f8/user.schae.15490773.EXT0._000240.DAOD_EXOT5.test.pool.root'
p628
aS'root://fax.mwt2.org:1094//pnfs/uchicago.edu/atlaslocalgroupdisk/rucio/user/schae/62/e7/user.schae.15490773.EXT0._000241.DAOD_EXOT5.test.pool.root'
p629
aS'root://fax.mwt2.org:1094//pnfs/uchicago.edu/atlaslocalgroupdisk/rucio/user/schae/74/c1/user.schae.15490773.EXT0._000242.DAOD_EXOT5.test.pool.root'
p630
aS'root://fax.mwt2.org:1094//pnfs/uchicago.edu/atlaslocalgroupdisk/rucio/user/schae/6d/0e/user.schae.15490773.EXT0._000243.DAOD_EXOT5.test.pool.root'
p631
aS'root://fax.mwt2.org:1094//pnfs/uchicago.edu/atlaslocalgroupdisk/rucio/user/schae/67/5e/user.schae.15490773.EXT0._000244.DAOD_EXOT5.test.pool.root'
p632
aS'root://fax.mwt2.org:1094//pnfs/uchicago.edu/atlaslocalgroupdisk/rucio/user/schae/86/c4/user.schae.15490773.EXT0._000245.DAOD_EXOT5.test.pool.root'
p633
aS'root://fax.mwt2.org:1094//pnfs/uchicago.edu/atlaslocalgroupdisk/rucio/user/schae/cf/c3/user.schae.15490773.EXT0._000246.DAOD_EXOT5.test.pool.root'
p634
aS'root://fax.mwt2.org:1094//pnfs/uchicago.edu/atlaslocalgroupdisk/rucio/user/schae/2a/a1/user.schae.15490773.EXT0._000247.DAOD_EXOT5.test.pool.root'
p635
aS'root://fax.mwt2.org:1094//pnfs/uchicago.edu/atlaslocalgroupdisk/rucio/user/schae/ac/4f/user.schae.15490773.EXT0._000248.DAOD_EXOT5.test.pool.root'
p636
aS'root://fax.mwt2.org:1094//pnfs/uchicago.edu/atlaslocalgroupdisk/rucio/user/schae/33/59/user.schae.15490773.EXT0._000249.DAOD_EXOT5.test.pool.root'
p637
aS'root://fax.mwt2.org:1094//pnfs/uchicago.edu/atlaslocalgroupdisk/rucio/user/schae/29/b1/user.schae.15490773.EXT0._000250.DAOD_EXOT5.test.pool.root'
p638
asS'user.schae.SkimSep19DAOD.361518.EXOT5_EXT0'
p639
(lp640
S'root://fax.mwt2.org:1094//pnfs/uchicago.edu/atlaslocalgroupdisk/rucio/user/schae/78/b2/user.schae.15490807.EXT0._000004.DAOD_EXOT5.test.pool.root'
p641
aS'root://fax.mwt2.org:1094//pnfs/uchicago.edu/atlaslocalgroupdisk/rucio/user/schae/41/b5/user.schae.15490807.EXT0._000011.DAOD_EXOT5.test.pool.root'
p642
aS'root://fax.mwt2.org:1094//pnfs/uchicago.edu/atlaslocalgroupdisk/rucio/user/schae/39/3c/user.schae.15490807.EXT0._000012.DAOD_EXOT5.test.pool.root'
p643
aS'root://fax.mwt2.org:1094//pnfs/uchicago.edu/atlaslocalgroupdisk/rucio/user/schae/cb/f6/user.schae.15490807.EXT0._000013.DAOD_EXOT5.test.pool.root'
p644
aS'root://fax.mwt2.org:1094//pnfs/uchicago.edu/atlaslocalgroupdisk/rucio/user/schae/05/fa/user.schae.15490807.EXT0._000014.DAOD_EXOT5.test.pool.root'
p645
aS'root://fax.mwt2.org:1094//pnfs/uchicago.edu/atlaslocalgroupdisk/rucio/user/schae/c5/ca/user.schae.15490807.EXT0._000015.DAOD_EXOT5.test.pool.root'
p646
aS'root://fax.mwt2.org:1094//pnfs/uchicago.edu/atlaslocalgroupdisk/rucio/user/schae/7d/ed/user.schae.15490807.EXT0._000016.DAOD_EXOT5.test.pool.root'
p647
aS'root://fax.mwt2.org:1094//pnfs/uchicago.edu/atlaslocalgroupdisk/rucio/user/schae/a3/ee/user.schae.15490807.EXT0._000017.DAOD_EXOT5.test.pool.root'
p648
aS'root://fax.mwt2.org:1094//pnfs/uchicago.edu/atlaslocalgroupdisk/rucio/user/schae/cc/20/user.schae.15490807.EXT0._000018.DAOD_EXOT5.test.pool.root'
p649
aS'root://fax.mwt2.org:1094//pnfs/uchicago.edu/atlaslocalgroupdisk/rucio/user/schae/77/c7/user.schae.15490807.EXT0._000019.DAOD_EXOT5.test.pool.root'
p650
aS'root://fax.mwt2.org:1094//pnfs/uchicago.edu/atlaslocalgroupdisk/rucio/user/schae/25/f9/user.schae.15490807.EXT0._000020.DAOD_EXOT5.test.pool.root'
p651
aS'root://fax.mwt2.org:1094//pnfs/uchicago.edu/atlaslocalgroupdisk/rucio/user/schae/01/43/user.schae.15490807.EXT0._000021.DAOD_EXOT5.test.pool.root'
p652
aS'root://fax.mwt2.org:1094//pnfs/uchicago.edu/atlaslocalgroupdisk/rucio/user/schae/4c/b2/user.schae.15490807.EXT0._000022.DAOD_EXOT5.test.pool.root'
p653
aS'root://fax.mwt2.org:1094//pnfs/uchicago.edu/atlaslocalgroupdisk/rucio/user/schae/d0/75/user.schae.15490807.EXT0._000023.DAOD_EXOT5.test.pool.root'
p654
aS'root://fax.mwt2.org:1094//pnfs/uchicago.edu/atlaslocalgroupdisk/rucio/user/schae/34/bf/user.schae.15490807.EXT0._000024.DAOD_EXOT5.test.pool.root'
p655
aS'root://fax.mwt2.org:1094//pnfs/uchicago.edu/atlaslocalgroupdisk/rucio/user/schae/cb/64/user.schae.15490807.EXT0._000025.DAOD_EXOT5.test.pool.root'
p656
aS'root://fax.mwt2.org:1094//pnfs/uchicago.edu/atlaslocalgroupdisk/rucio/user/schae/35/cd/user.schae.15490807.EXT0._000026.DAOD_EXOT5.test.pool.root'
p657
aS'root://fax.mwt2.org:1094//pnfs/uchicago.edu/atlaslocalgroupdisk/rucio/user/schae/0e/94/user.schae.15490807.EXT0._000027.DAOD_EXOT5.test.pool.root'
p658
aS'root://fax.mwt2.org:1094//pnfs/uchicago.edu/atlaslocalgroupdisk/rucio/user/schae/f9/3a/user.schae.15490807.EXT0._000028.DAOD_EXOT5.test.pool.root'
p659
aS'root://fax.mwt2.org:1094//pnfs/uchicago.edu/atlaslocalgroupdisk/rucio/user/schae/fe/a7/user.schae.15490807.EXT0._000029.DAOD_EXOT5.test.pool.root'
p660
aS'root://fax.mwt2.org:1094//pnfs/uchicago.edu/atlaslocalgroupdisk/rucio/user/schae/29/30/user.schae.15490807.EXT0._000030.DAOD_EXOT5.test.pool.root'
p661
aS'root://fax.mwt2.org:1094//pnfs/uchicago.edu/atlaslocalgroupdisk/rucio/user/schae/76/8c/user.schae.15490807.EXT0._000031.DAOD_EXOT5.test.pool.root'
p662
aS'root://fax.mwt2.org:1094//pnfs/uchicago.edu/atlaslocalgroupdisk/rucio/user/schae/de/c3/user.schae.15490807.EXT0._000032.DAOD_EXOT5.test.pool.root'
p663
aS'root://fax.mwt2.org:1094//pnfs/uchicago.edu/atlaslocalgroupdisk/rucio/user/schae/01/42/user.schae.15490807.EXT0._000033.DAOD_EXOT5.test.pool.root'
p664
aS'root://fax.mwt2.org:1094//pnfs/uchicago.edu/atlaslocalgroupdisk/rucio/user/schae/e0/84/user.schae.15490807.EXT0._000034.DAOD_EXOT5.test.pool.root'
p665
aS'root://fax.mwt2.org:1094//pnfs/uchicago.edu/atlaslocalgroupdisk/rucio/user/schae/a0/83/user.schae.15490807.EXT0._000035.DAOD_EXOT5.test.pool.root'
p666
aS'root://fax.mwt2.org:1094//pnfs/uchicago.edu/atlaslocalgroupdisk/rucio/user/schae/df/57/user.schae.15490807.EXT0._000044.DAOD_EXOT5.test.pool.root'
p667
aS'root://fax.mwt2.org:1094//pnfs/uchicago.edu/atlaslocalgroupdisk/rucio/user/schae/9c/f2/user.schae.15490807.EXT0._000045.DAOD_EXOT5.test.pool.root'
p668
aS'root://fax.mwt2.org:1094//pnfs/uchicago.edu/atlaslocalgroupdisk/rucio/user/schae/df/9c/user.schae.15490807.EXT0._000046.DAOD_EXOT5.test.pool.root'
p669
aS'root://fax.mwt2.org:1094//pnfs/uchicago.edu/atlaslocalgroupdisk/rucio/user/schae/a0/e3/user.schae.15490807.EXT0._000047.DAOD_EXOT5.test.pool.root'
p670
aS'root://fax.mwt2.org:1094//pnfs/uchicago.edu/atlaslocalgroupdisk/rucio/user/schae/b6/5c/user.schae.15490807.EXT0._000050.DAOD_EXOT5.test.pool.root'
p671
aS'root://fax.mwt2.org:1094//pnfs/uchicago.edu/atlaslocalgroupdisk/rucio/user/schae/50/62/user.schae.15490807.EXT0._000057.DAOD_EXOT5.test.pool.root.2'
p672
aS'root://fax.mwt2.org:1094//pnfs/uchicago.edu/atlaslocalgroupdisk/rucio/user/schae/1b/3b/user.schae.15490807.EXT0._000060.DAOD_EXOT5.test.pool.root'
p673
aS'root://fax.mwt2.org:1094//pnfs/uchicago.edu/atlaslocalgroupdisk/rucio/user/schae/ff/f1/user.schae.15490807.EXT0._000061.DAOD_EXOT5.test.pool.root'
p674
aS'root://fax.mwt2.org:1094//pnfs/uchicago.edu/atlaslocalgroupdisk/rucio/user/schae/96/66/user.schae.15490807.EXT0._000062.DAOD_EXOT5.test.pool.root'
p675
aS'root://fax.mwt2.org:1094//pnfs/uchicago.edu/atlaslocalgroupdisk/rucio/user/schae/08/d8/user.schae.15490807.EXT0._000063.DAOD_EXOT5.test.pool.root'
p676
aS'root://fax.mwt2.org:1094//pnfs/uchicago.edu/atlaslocalgroupdisk/rucio/user/schae/da/40/user.schae.15490807.EXT0._000064.DAOD_EXOT5.test.pool.root'
p677
aS'root://fax.mwt2.org:1094//pnfs/uchicago.edu/atlaslocalgroupdisk/rucio/user/schae/1e/3f/user.schae.15490807.EXT0._000065.DAOD_EXOT5.test.pool.root'
p678
aS'root://fax.mwt2.org:1094//pnfs/uchicago.edu/atlaslocalgroupdisk/rucio/user/schae/d2/1a/user.schae.15490807.EXT0._000066.DAOD_EXOT5.test.pool.root'
p679
aS'root://fax.mwt2.org:1094//pnfs/uchicago.edu/atlaslocalgroupdisk/rucio/user/schae/d1/4c/user.schae.15490807.EXT0._000067.DAOD_EXOT5.test.pool.root'
p680
aS'root://fax.mwt2.org:1094//pnfs/uchicago.edu/atlaslocalgroupdisk/rucio/user/schae/66/dd/user.schae.15490807.EXT0._000068.DAOD_EXOT5.test.pool.root'
p681
aS'root://fax.mwt2.org:1094//pnfs/uchicago.edu/atlaslocalgroupdisk/rucio/user/schae/11/65/user.schae.15490807.EXT0._000069.DAOD_EXOT5.test.pool.root'
p682
aS'root://fax.mwt2.org:1094//pnfs/uchicago.edu/atlaslocalgroupdisk/rucio/user/schae/74/3c/user.schae.15490807.EXT0._000070.DAOD_EXOT5.test.pool.root'
p683
aS'root://fax.mwt2.org:1094//pnfs/uchicago.edu/atlaslocalgroupdisk/rucio/user/schae/26/97/user.schae.15490807.EXT0._000071.DAOD_EXOT5.test.pool.root'
p684
aS'root://fax.mwt2.org:1094//pnfs/uchicago.edu/atlaslocalgroupdisk/rucio/user/schae/9e/36/user.schae.15490807.EXT0._000072.DAOD_EXOT5.test.pool.root'
p685
aS'root://fax.mwt2.org:1094//pnfs/uchicago.edu/atlaslocalgroupdisk/rucio/user/schae/ad/83/user.schae.15490807.EXT0._000073.DAOD_EXOT5.test.pool.root'
p686
aS'root://fax.mwt2.org:1094//pnfs/uchicago.edu/atlaslocalgroupdisk/rucio/user/schae/45/c3/user.schae.15490807.EXT0._000074.DAOD_EXOT5.test.pool.root'
p687
aS'root://fax.mwt2.org:1094//pnfs/uchicago.edu/atlaslocalgroupdisk/rucio/user/schae/fe/0d/user.schae.15490807.EXT0._000075.DAOD_EXOT5.test.pool.root'
p688
aS'root://fax.mwt2.org:1094//pnfs/uchicago.edu/atlaslocalgroupdisk/rucio/user/schae/c5/d3/user.schae.15490807.EXT0._000076.DAOD_EXOT5.test.pool.root'
p689
aS'root://fax.mwt2.org:1094//pnfs/uchicago.edu/atlaslocalgroupdisk/rucio/user/schae/86/63/user.schae.15490807.EXT0._000077.DAOD_EXOT5.test.pool.root'
p690
aS'root://fax.mwt2.org:1094//pnfs/uchicago.edu/atlaslocalgroupdisk/rucio/user/schae/1f/18/user.schae.15490807.EXT0._000078.DAOD_EXOT5.test.pool.root'
p691
aS'root://fax.mwt2.org:1094//pnfs/uchicago.edu/atlaslocalgroupdisk/rucio/user/schae/ca/64/user.schae.15490807.EXT0._000079.DAOD_EXOT5.test.pool.root.2'
p692
aS'root://fax.mwt2.org:1094//pnfs/uchicago.edu/atlaslocalgroupdisk/rucio/user/schae/28/be/user.schae.15490807.EXT0._000084.DAOD_EXOT5.test.pool.root.2'
p693
aS'root://fax.mwt2.org:1094//pnfs/uchicago.edu/atlaslocalgroupdisk/rucio/user/schae/f2/92/user.schae.15490807.EXT0._000085.DAOD_EXOT5.test.pool.root'
p694
aS'root://fax.mwt2.org:1094//pnfs/uchicago.edu/atlaslocalgroupdisk/rucio/user/schae/23/d2/user.schae.15490807.EXT0._000087.DAOD_EXOT5.test.pool.root.3'
p695
aS'root://fax.mwt2.org:1094//pnfs/uchicago.edu/atlaslocalgroupdisk/rucio/user/schae/fa/02/user.schae.15490807.EXT0._000102.DAOD_EXOT5.test.pool.root'
p696
aS'root://fax.mwt2.org:1094//pnfs/uchicago.edu/atlaslocalgroupdisk/rucio/user/schae/15/98/user.schae.15490807.EXT0._000111.DAOD_EXOT5.test.pool.root'
p697
aS'root://fax.mwt2.org:1094//pnfs/uchicago.edu/atlaslocalgroupdisk/rucio/user/schae/c8/0d/user.schae.15490807.EXT0._000118.DAOD_EXOT5.test.pool.root.3'
p698
aS'root://fax.mwt2.org:1094//pnfs/uchicago.edu/atlaslocalgroupdisk/rucio/user/schae/ac/43/user.schae.15490807.EXT0._000119.DAOD_EXOT5.test.pool.root.3'
p699
aS'root://fax.mwt2.org:1094//pnfs/uchicago.edu/atlaslocalgroupdisk/rucio/user/schae/a0/cb/user.schae.15490807.EXT0._000124.DAOD_EXOT5.test.pool.root.2'
p700
aS'root://fax.mwt2.org:1094//pnfs/uchicago.edu/atlaslocalgroupdisk/rucio/user/schae/82/a4/user.schae.15490807.EXT0._000126.DAOD_EXOT5.test.pool.root'
p701
aS'root://fax.mwt2.org:1094//pnfs/uchicago.edu/atlaslocalgroupdisk/rucio/user/schae/5f/7f/user.schae.15490807.EXT0._000127.DAOD_EXOT5.test.pool.root'
p702
aS'root://fax.mwt2.org:1094//pnfs/uchicago.edu/atlaslocalgroupdisk/rucio/user/schae/85/3b/user.schae.15490807.EXT0._000128.DAOD_EXOT5.test.pool.root'
p703
aS'root://fax.mwt2.org:1094//pnfs/uchicago.edu/atlaslocalgroupdisk/rucio/user/schae/88/4c/user.schae.15490807.EXT0._000129.DAOD_EXOT5.test.pool.root'
p704
aS'root://fax.mwt2.org:1094//pnfs/uchicago.edu/atlaslocalgroupdisk/rucio/user/schae/d5/3f/user.schae.15490807.EXT0._000130.DAOD_EXOT5.test.pool.root'
p705
aS'root://fax.mwt2.org:1094//pnfs/uchicago.edu/atlaslocalgroupdisk/rucio/user/schae/2e/31/user.schae.15490807.EXT0._000131.DAOD_EXOT5.test.pool.root'
p706
aS'root://fax.mwt2.org:1094//pnfs/uchicago.edu/atlaslocalgroupdisk/rucio/user/schae/a6/26/user.schae.15490807.EXT0._000132.DAOD_EXOT5.test.pool.root'
p707
aS'root://fax.mwt2.org:1094//pnfs/uchicago.edu/atlaslocalgroupdisk/rucio/user/schae/b2/6c/user.schae.15490807.EXT0._000133.DAOD_EXOT5.test.pool.root'
p708
aS'root://fax.mwt2.org:1094//pnfs/uchicago.edu/atlaslocalgroupdisk/rucio/user/schae/5e/d0/user.schae.15490807.EXT0._000134.DAOD_EXOT5.test.pool.root'
p709
aS'root://fax.mwt2.org:1094//pnfs/uchicago.edu/atlaslocalgroupdisk/rucio/user/schae/61/1d/user.schae.15490807.EXT0._000135.DAOD_EXOT5.test.pool.root'
p710
aS'root://fax.mwt2.org:1094//pnfs/uchicago.edu/atlaslocalgroupdisk/rucio/user/schae/7c/72/user.schae.15490807.EXT0._000136.DAOD_EXOT5.test.pool.root'
p711
aS'root://fax.mwt2.org:1094//pnfs/uchicago.edu/atlaslocalgroupdisk/rucio/user/schae/d8/e9/user.schae.15490807.EXT0._000137.DAOD_EXOT5.test.pool.root'
p712
aS'root://fax.mwt2.org:1094//pnfs/uchicago.edu/atlaslocalgroupdisk/rucio/user/schae/9e/d0/user.schae.15490807.EXT0._000138.DAOD_EXOT5.test.pool.root'
p713
aS'root://fax.mwt2.org:1094//pnfs/uchicago.edu/atlaslocalgroupdisk/rucio/user/schae/6c/ac/user.schae.15490807.EXT0._000139.DAOD_EXOT5.test.pool.root'
p714
aS'root://fax.mwt2.org:1094//pnfs/uchicago.edu/atlaslocalgroupdisk/rucio/user/schae/db/43/user.schae.15490807.EXT0._000140.DAOD_EXOT5.test.pool.root'
p715
aS'root://fax.mwt2.org:1094//pnfs/uchicago.edu/atlaslocalgroupdisk/rucio/user/schae/f5/90/user.schae.15490807.EXT0._000141.DAOD_EXOT5.test.pool.root'
p716
aS'root://fax.mwt2.org:1094//pnfs/uchicago.edu/atlaslocalgroupdisk/rucio/user/schae/6f/7b/user.schae.15490807.EXT0._000146.DAOD_EXOT5.test.pool.root.5'
p717
aS'root://fax.mwt2.org:1094//pnfs/uchicago.edu/atlaslocalgroupdisk/rucio/user/schae/05/39/user.schae.15490807.EXT0._000148.DAOD_EXOT5.test.pool.root'
p718
aS'root://fax.mwt2.org:1094//pnfs/uchicago.edu/atlaslocalgroupdisk/rucio/user/schae/93/67/user.schae.15490807.EXT0._000149.DAOD_EXOT5.test.pool.root'
p719
aS'root://fax.mwt2.org:1094//pnfs/uchicago.edu/atlaslocalgroupdisk/rucio/user/schae/36/d9/user.schae.15490807.EXT0._000151.DAOD_EXOT5.test.pool.root'
p720
aS'root://fax.mwt2.org:1094//pnfs/uchicago.edu/atlaslocalgroupdisk/rucio/user/schae/c6/8a/user.schae.15490807.EXT0._000156.DAOD_EXOT5.test.pool.root.5'
p721
aS'root://fax.mwt2.org:1094//pnfs/uchicago.edu/atlaslocalgroupdisk/rucio/user/schae/0e/27/user.schae.15490807.EXT0._000157.DAOD_EXOT5.test.pool.root.6'
p722
aS'root://fax.mwt2.org:1094//pnfs/uchicago.edu/atlaslocalgroupdisk/rucio/user/schae/f6/70/user.schae.15490807.EXT0._000158.DAOD_EXOT5.test.pool.root.6'
p723
aS'root://fax.mwt2.org:1094//pnfs/uchicago.edu/atlaslocalgroupdisk/rucio/user/schae/2f/34/user.schae.15490807.EXT0._000159.DAOD_EXOT5.test.pool.root.5'
p724
aS'root://fax.mwt2.org:1094//pnfs/uchicago.edu/atlaslocalgroupdisk/rucio/user/schae/66/bb/user.schae.15490807.EXT0._000170.DAOD_EXOT5.test.pool.root.6'
p725
aS'root://fax.mwt2.org:1094//pnfs/uchicago.edu/atlaslocalgroupdisk/rucio/user/schae/17/1f/user.schae.15490807.EXT0._000174.DAOD_EXOT5.test.pool.root.6'
p726
aS'root://fax.mwt2.org:1094//pnfs/uchicago.edu/atlaslocalgroupdisk/rucio/user/schae/ef/66/user.schae.15490807.EXT0._000179.DAOD_EXOT5.test.pool.root'
p727
aS'root://fax.mwt2.org:1094//pnfs/uchicago.edu/atlaslocalgroupdisk/rucio/user/schae/6a/cf/user.schae.15490807.EXT0._000186.DAOD_EXOT5.test.pool.root'
p728
aS'root://fax.mwt2.org:1094//pnfs/uchicago.edu/atlaslocalgroupdisk/rucio/user/schae/60/35/user.schae.15490807.EXT0._000187.DAOD_EXOT5.test.pool.root'
p729
aS'root://fax.mwt2.org:1094//pnfs/uchicago.edu/atlaslocalgroupdisk/rucio/user/schae/2b/db/user.schae.15490807.EXT0._000188.DAOD_EXOT5.test.pool.root'
p730
aS'root://fax.mwt2.org:1094//pnfs/uchicago.edu/atlaslocalgroupdisk/rucio/user/schae/62/41/user.schae.15490807.EXT0._000189.DAOD_EXOT5.test.pool.root'
p731
aS'root://fax.mwt2.org:1094//pnfs/uchicago.edu/atlaslocalgroupdisk/rucio/user/schae/8e/d4/user.schae.15490807.EXT0._000190.DAOD_EXOT5.test.pool.root'
p732
aS'root://fax.mwt2.org:1094//pnfs/uchicago.edu/atlaslocalgroupdisk/rucio/user/schae/18/b7/user.schae.15490807.EXT0._000191.DAOD_EXOT5.test.pool.root'
p733
aS'root://fax.mwt2.org:1094//pnfs/uchicago.edu/atlaslocalgroupdisk/rucio/user/schae/b7/2f/user.schae.15490807.EXT0._000192.DAOD_EXOT5.test.pool.root'
p734
aS'root://fax.mwt2.org:1094//pnfs/uchicago.edu/atlaslocalgroupdisk/rucio/user/schae/d4/45/user.schae.15490807.EXT0._000193.DAOD_EXOT5.test.pool.root'
p735
aS'root://fax.mwt2.org:1094//pnfs/uchicago.edu/atlaslocalgroupdisk/rucio/user/schae/0d/1d/user.schae.15490807.EXT0._000194.DAOD_EXOT5.test.pool.root'
p736
aS'root://fax.mwt2.org:1094//pnfs/uchicago.edu/atlaslocalgroupdisk/rucio/user/schae/c7/aa/user.schae.15490807.EXT0._000195.DAOD_EXOT5.test.pool.root'
p737
aS'root://fax.mwt2.org:1094//pnfs/uchicago.edu/atlaslocalgroupdisk/rucio/user/schae/86/cf/user.schae.15490807.EXT0._000196.DAOD_EXOT5.test.pool.root'
p738
aS'root://fax.mwt2.org:1094//pnfs/uchicago.edu/atlaslocalgroupdisk/rucio/user/schae/49/8e/user.schae.15490807.EXT0._000197.DAOD_EXOT5.test.pool.root'
p739
aS'root://fax.mwt2.org:1094//pnfs/uchicago.edu/atlaslocalgroupdisk/rucio/user/schae/0a/4b/user.schae.15490807.EXT0._000198.DAOD_EXOT5.test.pool.root'
p740
aS'root://fax.mwt2.org:1094//pnfs/uchicago.edu/atlaslocalgroupdisk/rucio/user/schae/a8/ff/user.schae.15490807.EXT0._000199.DAOD_EXOT5.test.pool.root'
p741
aS'root://fax.mwt2.org:1094//pnfs/uchicago.edu/atlaslocalgroupdisk/rucio/user/schae/b2/a3/user.schae.15490807.EXT0._000200.DAOD_EXOT5.test.pool.root'
p742
aS'root://fax.mwt2.org:1094//pnfs/uchicago.edu/atlaslocalgroupdisk/rucio/user/schae/59/6c/user.schae.15490807.EXT0._000201.DAOD_EXOT5.test.pool.root'
p743
aS'root://fax.mwt2.org:1094//pnfs/uchicago.edu/atlaslocalgroupdisk/rucio/user/schae/c7/ad/user.schae.15490807.EXT0._000202.DAOD_EXOT5.test.pool.root'
p744
aS'root://fax.mwt2.org:1094//pnfs/uchicago.edu/atlaslocalgroupdisk/rucio/user/schae/7a/cc/user.schae.15490807.EXT0._000203.DAOD_EXOT5.test.pool.root'
p745
aS'root://fax.mwt2.org:1094//pnfs/uchicago.edu/atlaslocalgroupdisk/rucio/user/schae/e3/39/user.schae.15490807.EXT0._000204.DAOD_EXOT5.test.pool.root'
p746
aS'root://fax.mwt2.org:1094//pnfs/uchicago.edu/atlaslocalgroupdisk/rucio/user/schae/da/f0/user.schae.15490807.EXT0._000205.DAOD_EXOT5.test.pool.root'
p747
aS'root://fax.mwt2.org:1094//pnfs/uchicago.edu/atlaslocalgroupdisk/rucio/user/schae/40/55/user.schae.15490807.EXT0._000206.DAOD_EXOT5.test.pool.root'
p748
aS'root://fax.mwt2.org:1094//pnfs/uchicago.edu/atlaslocalgroupdisk/rucio/user/schae/67/0d/user.schae.15490807.EXT0._000207.DAOD_EXOT5.test.pool.root'
p749
aS'root://fax.mwt2.org:1094//pnfs/uchicago.edu/atlaslocalgroupdisk/rucio/user/schae/21/c0/user.schae.15490807.EXT0._000208.DAOD_EXOT5.test.pool.root'
p750
aS'root://fax.mwt2.org:1094//pnfs/uchicago.edu/atlaslocalgroupdisk/rucio/user/schae/27/b9/user.schae.15490807.EXT0._000209.DAOD_EXOT5.test.pool.root'
p751
aS'root://fax.mwt2.org:1094//pnfs/uchicago.edu/atlaslocalgroupdisk/rucio/user/schae/be/9b/user.schae.15490807.EXT0._000210.DAOD_EXOT5.test.pool.root'
p752
as.