(dp0
S'user.schae.v13Loose.364188.Sherpa_221_NNPDF30NNLO_Wtaunu_MAXHTPTV70_140_CFilterBVeto.e5340_s3126_r9364_p3575_MiniNtuple.root   '
p1
(lp2
S'root://fax.mwt2.org:1094//pnfs/uchicago.edu/atlaslocalgroupdisk/rucio/user/schae/d4/c7/user.schae.15606503._000001.MiniNtuple.root'
p3
aS'root://fax.mwt2.org:1094//pnfs/uchicago.edu/atlaslocalgroupdisk/rucio/user/schae/b1/25/user.schae.15606503._000002.MiniNtuple.root'
p4
asS'user.schae.v13Loose.364200.Sherpa_221_NN30NNLO_Zmm_Mll10_40_MAXHTPTV70_280_BVeto.e5421_s3126_r9364_p3575_MiniNtuple.root       '
p5
(lp6
S'root://fax.mwt2.org:1094//pnfs/uchicago.edu/atlaslocalgroupdisk/rucio/user/schae/11/08/user.schae.15606627._000001.MiniNtuple.root'
p7
aS'root://fax.mwt2.org:1094//pnfs/uchicago.edu/atlaslocalgroupdisk/rucio/user/schae/22/a7/user.schae.15606627._000002.MiniNtuple.root'
p8
asS'user.schae.v13Loose.364156.Sherpa_221_NNPDF30NNLO_Wmunu_MAXHTPTV0_70_CVetoBVeto.e5340_s3126_r9364_p3575_MiniNtuple.root'
p9
(lp10
S'root://fax.mwt2.org:1094//pnfs/uchicago.edu/atlaslocalgroupdisk/rucio/user/schae/45/20/user.schae.15606469._000001.MiniNtuple.root'
p11
aS'root://fax.mwt2.org:1094//pnfs/uchicago.edu/atlaslocalgroupdisk/rucio/user/schae/53/00/user.schae.15606469._000002.MiniNtuple.root'
p12
asS'user.schae.v13Loose.364107.Sherpa_221_NNPDF30NNLO_Zmumu_MAXHTPTV140_280_CFilterBVeto.e5271_s3126_r9364_p3575_MiniNtuple.root   '
p13
(lp14
S'root://fax.mwt2.org:1094//pnfs/uchicago.edu/atlaslocalgroupdisk/rucio/user/schae/6f/b7/user.schae.15606559._000001.MiniNtuple.root'
p15
aS'root://fax.mwt2.org:1094//pnfs/uchicago.edu/atlaslocalgroupdisk/rucio/user/schae/48/d7/user.schae.15606559._000002.MiniNtuple.root'
p16
asS'user.schae.v13Loose.308094.Sherpa_221_NNPDF30NNLO_Ztautau2jets_Min_N_TChannel.e5767_s3126_r9364_p3575_MiniNtuple.root          '
p17
(lp18
S'root://fax.mwt2.org:1094//pnfs/uchicago.edu/atlaslocalgroupdisk/rucio/user/schae/b0/08/user.schae.15606430._000001.MiniNtuple.root'
p19
asS'user.schae.v13Loose.364136.Sherpa_221_NNPDF30NNLO_Ztautau_MAXHTPTV140_280_BFilter.e5307_s3126_r9364_p3575_MiniNtuple.root      '
p20
(lp21
S'root://fax.mwt2.org:1094//pnfs/uchicago.edu/atlaslocalgroupdisk/rucio/user/schae/fc/15/user.schae.15606587._000001.MiniNtuple.root'
p22
aS'root://fax.mwt2.org:1094//pnfs/uchicago.edu/atlaslocalgroupdisk/rucio/user/schae/cf/6a/user.schae.15606587._000002.MiniNtuple.root'
p23
asS'user.schae.v13Loose.364100.Sherpa_221_NNPDF30NNLO_Zmumu_MAXHTPTV0_70_CVetoBVeto.e5271_s3126_r9364_p3575_MiniNtuple.root        '
p24
(lp25
S'root://fax.mwt2.org:1094//pnfs/uchicago.edu/atlaslocalgroupdisk/rucio/user/schae/d6/12/user.schae.15606546._000001.MiniNtuple.root'
p26
asS'user.schae.v13Loose.364165.Sherpa_221_NNPDF30NNLO_Wmunu_MAXHTPTV280_500_CVetoBVeto.e5340_s3126_r9364_p3575_MiniNtuple.root'
p27
(lp28
S'root://fax.mwt2.org:1094//pnfs/uchicago.edu/atlaslocalgroupdisk/rucio/user/schae/86/cd/user.schae.15606486._000001.MiniNtuple.root'
p29
aS'root://fax.mwt2.org:1094//pnfs/uchicago.edu/atlaslocalgroupdisk/rucio/user/schae/64/44/user.schae.15606486._000002.MiniNtuple.root'
p30
aS'root://fax.mwt2.org:1094//pnfs/uchicago.edu/atlaslocalgroupdisk/rucio/user/schae/bc/dd/user.schae.15606486._000003.MiniNtuple.root'
p31
asS'user.schae.v13Loose.363494.Sherpa_221_NNPDF30NNLO_vvvv.e5332_s3126_r9364_p3575_MiniNtuple.root                                 '
p32
(lp33
S'root://fax.mwt2.org:1094//pnfs/uchicago.edu/atlaslocalgroupdisk/rucio/user/schae/52/2d/user.schae.15606644._000001.MiniNtuple.root'
p34
asS'user.schae.v13Loose.308093.Sherpa_221_NNPDF30NNLO_Zmm2jets_Min_N_TChannel.e5767_s3126_r9364_p3575_MiniNtuple.root              '
p35
(lp36
S'root://fax.mwt2.org:1094//pnfs/uchicago.edu/atlaslocalgroupdisk/rucio/user/schae/5b/21/user.schae.15606428._000001.MiniNtuple.root'
p37
asS'user.schae.v13Loose.364214.Sherpa_221_NN30NNLO_Ztt_Mll10_40_MAXHTPTV280_E_CMS_BVeto.e5421_s3126_r9364_p3575_MiniNtuple.root'
p38
(lp39
S'root://fax.mwt2.org:1094//pnfs/uchicago.edu/atlaslocalgroupdisk/rucio/user/schae/06/09/user.schae.15606641._000001.MiniNtuple.root'
p40
aS'root://fax.mwt2.org:1094//pnfs/uchicago.edu/atlaslocalgroupdisk/rucio/user/schae/14/07/user.schae.15606641._000002.MiniNtuple.root'
p41
aS'root://fax.mwt2.org:1094//pnfs/uchicago.edu/atlaslocalgroupdisk/rucio/user/schae/a5/4e/user.schae.15606641._000003.MiniNtuple.root'
p42
asS'user.schae.v13Loose.364101.Sherpa_221_NNPDF30NNLO_Zmumu_MAXHTPTV0_70_CFilterBVeto.e5271_s3126_r9364_p3575_MiniNtuple.root      '
p43
(lp44
S'root://fax.mwt2.org:1094//pnfs/uchicago.edu/atlaslocalgroupdisk/rucio/user/schae/06/f3/user.schae.15606548._000001.MiniNtuple.root'
p45
aS'root://fax.mwt2.org:1094//pnfs/uchicago.edu/atlaslocalgroupdisk/rucio/user/schae/bb/68/user.schae.15606548._000002.MiniNtuple.root'
p46
asS'user.schae.v13Loose.363356.Sherpa_221_NNPDF30NNLO_ZqqZll.e5525_s3126_r9364_p3575_MiniNtuple.root                               '
p47
(lp48
S'root://fax.mwt2.org:1094//pnfs/uchicago.edu/atlaslocalgroupdisk/rucio/user/schae/2a/ec/user.schae.15606414._000001.MiniNtuple.root'
p49
aS'root://fax.mwt2.org:1094//pnfs/uchicago.edu/atlaslocalgroupdisk/rucio/user/schae/e7/4b/user.schae.15606414._000002.MiniNtuple.root'
p50
aS'root://fax.mwt2.org:1094//pnfs/uchicago.edu/atlaslocalgroupdisk/rucio/user/schae/c1/2e/user.schae.15606414._000003.MiniNtuple.root'
p51
asS'user.schae.v13Loose.364175.Sherpa_221_NNPDF30NNLO_Wenu_MAXHTPTV70_140_BFilter.e5340_s3126_r9364_p3575_MiniNtuple.root          '
p52
(lp53
S'root://fax.mwt2.org:1094//pnfs/uchicago.edu/atlaslocalgroupdisk/rucio/user/schae/fc/4b/user.schae.15606449._000001.MiniNtuple.root'
p54
aS'root://fax.mwt2.org:1094//pnfs/uchicago.edu/atlaslocalgroupdisk/rucio/user/schae/34/e4/user.schae.15606449._000002.MiniNtuple.root'
p55
asS'user.schae.v13Loose.364213.Sherpa_221_NN30NNLO_Ztt_Mll10_40_MAXHTPTV70_280_BFilter.e5421_s3126_r9364_p3575_MiniNtuple.root'
p56
(lp57
S'root://fax.mwt2.org:1094//pnfs/uchicago.edu/atlaslocalgroupdisk/rucio/user/schae/18/57/user.schae.15606640._000001.MiniNtuple.root'
p58
aS'root://fax.mwt2.org:1094//pnfs/uchicago.edu/atlaslocalgroupdisk/rucio/user/schae/f9/e4/user.schae.15606640._000002.MiniNtuple.root'
p59
aS'root://fax.mwt2.org:1094//pnfs/uchicago.edu/atlaslocalgroupdisk/rucio/user/schae/6e/88/user.schae.15606640._000003.MiniNtuple.root'
p60
asS'user.schae.v13Loose.364167.Sherpa_221_NNPDF30NNLO_Wmunu_MAXHTPTV280_500_BFilter.e5340_s3126_r9364_p3575_MiniNtuple.root'
p61
(lp62
S'root://fax.mwt2.org:1094//pnfs/uchicago.edu/atlaslocalgroupdisk/rucio/user/schae/54/05/user.schae.15606490._000001.MiniNtuple.root'
p63
aS'root://fax.mwt2.org:1094//pnfs/uchicago.edu/atlaslocalgroupdisk/rucio/user/schae/0b/95/user.schae.15606490._000002.MiniNtuple.root'
p64
aS'root://fax.mwt2.org:1094//pnfs/uchicago.edu/atlaslocalgroupdisk/rucio/user/schae/b1/6a/user.schae.15606490._000003.MiniNtuple.root'
p65
asS'user.schae.v13Loose.364181.Sherpa_221_NNPDF30NNLO_Wenu_MAXHTPTV280_500_BFilter.e5340_s3126_r9364_p3575_MiniNtuple.root         '
p66
(lp67
S'root://fax.mwt2.org:1094//pnfs/uchicago.edu/atlaslocalgroupdisk/rucio/user/schae/b2/21/user.schae.15606462._000001.MiniNtuple.root'
p68
aS'root://fax.mwt2.org:1094//pnfs/uchicago.edu/atlaslocalgroupdisk/rucio/user/schae/6d/6b/user.schae.15606462._000002.MiniNtuple.root'
p69
aS'root://fax.mwt2.org:1094//pnfs/uchicago.edu/atlaslocalgroupdisk/rucio/user/schae/8d/22/user.schae.15606462._000003.MiniNtuple.root'
p70
asS'user.schae.v13Loose.364103.Sherpa_221_NNPDF30NNLO_Zmumu_MAXHTPTV70_140_CVetoBVeto.e5271_s3126_r9364_p3575_MiniNtuple.root      '
p71
(lp72
S'root://fax.mwt2.org:1094//pnfs/uchicago.edu/atlaslocalgroupdisk/rucio/user/schae/58/c8/user.schae.15606551._000001.MiniNtuple.root'
p73
aS'root://fax.mwt2.org:1094//pnfs/uchicago.edu/atlaslocalgroupdisk/rucio/user/schae/88/9c/user.schae.15606551._000002.MiniNtuple.root'
p74
asS'user.schae.v13Loose.364171.Sherpa_221_NNPDF30NNLO_Wenu_MAXHTPTV0_70_CFilterBVeto.e5340_s3126_r9364_p3575_MiniNtuple.root'
p75
(lp76
S'root://fax.mwt2.org:1094//pnfs/uchicago.edu/atlaslocalgroupdisk/rucio/user/schae/d6/d0/user.schae.15606441._000001.MiniNtuple.root'
p77
aS'root://fax.mwt2.org:1094//pnfs/uchicago.edu/atlaslocalgroupdisk/rucio/user/schae/43/b9/user.schae.15606441._000002.MiniNtuple.root'
p78
asS'user.schae.v13Loose.364203.Sherpa_221_NN30NNLO_Zmm_Mll10_40_MAXHTPTV280_E_CMS_BFilter.e5421_s3126_r9364_p3575_MiniNtuple.root'
p79
(lp80
S'root://fax.mwt2.org:1094//pnfs/uchicago.edu/atlaslocalgroupdisk/rucio/user/schae/ad/7f/user.schae.15606630._000001.MiniNtuple.root'
p81
aS'root://fax.mwt2.org:1094//pnfs/uchicago.edu/atlaslocalgroupdisk/rucio/user/schae/74/fb/user.schae.15606630._000002.MiniNtuple.root'
p82
asS'user.schae.v13Loose.364180.Sherpa_221_NNPDF30NNLO_Wenu_MAXHTPTV280_500_CFilterBVeto.e5340_s3126_r9364_p3575_MiniNtuple.root    '
p83
(lp84
S'root://fax.mwt2.org:1094//pnfs/uchicago.edu/atlaslocalgroupdisk/rucio/user/schae/b2/26/user.schae.15606459._000001.MiniNtuple.root'
p85
aS'root://fax.mwt2.org:1094//pnfs/uchicago.edu/atlaslocalgroupdisk/rucio/user/schae/39/40/user.schae.15606459._000002.MiniNtuple.root'
p86
aS'root://fax.mwt2.org:1094//pnfs/uchicago.edu/atlaslocalgroupdisk/rucio/user/schae/d2/58/user.schae.15606459._000003.MiniNtuple.root'
p87
asS'user.schae.v13Loose.364245.Sherpa_222_NNPDF30NNLO_WZZ_5l1v_EW6.e5887_s3126_r9364_p3575_MiniNtuple.root'
p88
(lp89
S'root://fax.mwt2.org:1094//pnfs/uchicago.edu/atlaslocalgroupdisk/rucio/user/schae/ce/3f/user.schae.15606651._000001.MiniNtuple.root'
p90
asS'user.schae.v13Loose.364128.Sherpa_221_NNPDF30NNLO_Ztautau_MAXHTPTV0_70_CVetoBVeto.e5307_s3126_r9364_p3575_MiniNtuple.root      '
p91
(lp92
S'root://fax.mwt2.org:1094//pnfs/uchicago.edu/atlaslocalgroupdisk/rucio/user/schae/93/20/user.schae.15606572._000001.MiniNtuple.root'
p93
aS'root://fax.mwt2.org:1094//pnfs/uchicago.edu/atlaslocalgroupdisk/rucio/user/schae/58/5f/user.schae.15606572._000002.MiniNtuple.root'
p94
asS'user.schae.v13Loose.364205.Sherpa_221_NN30NNLO_Zee_Mll10_40_MAXHTPTV0_70_BFilter.e5421_s3126_r9364_p3575_MiniNtuple.root'
p95
(lp96
S'root://fax.mwt2.org:1094//pnfs/uchicago.edu/atlaslocalgroupdisk/rucio/user/schae/7a/e5/user.schae.15606632._000001.MiniNtuple.root'
p97
aS'root://fax.mwt2.org:1094//pnfs/uchicago.edu/atlaslocalgroupdisk/rucio/user/schae/9d/d4/user.schae.15606632._000002.MiniNtuple.root'
p98
asS'user.schae.v13Loose.361032.Pythia8EvtGen_A14NNPDF23LO_jetjet_JZ12W.e3668_s3126_r9364_p3575_MiniNtuple.root                     '
p99
(lp100
S'root://fax.mwt2.org:1094//pnfs/uchicago.edu/atlaslocalgroupdisk/rucio/user/schae/d4/45/user.schae.15606613._000001.MiniNtuple.root'
p101
aS'root://fax.mwt2.org:1094//pnfs/uchicago.edu/atlaslocalgroupdisk/rucio/user/schae/83/df/user.schae.15606613._000002.MiniNtuple.root'
p102
aS'root://fax.mwt2.org:1094//pnfs/uchicago.edu/atlaslocalgroupdisk/rucio/user/schae/14/3f/user.schae.15606613._000003.MiniNtuple.root'
p103
aS'root://fax.mwt2.org:1094//pnfs/uchicago.edu/atlaslocalgroupdisk/rucio/user/schae/38/10/user.schae.15606613._000004.MiniNtuple.root'
p104
aS'root://fax.mwt2.org:1094//pnfs/uchicago.edu/atlaslocalgroupdisk/rucio/user/schae/07/0a/user.schae.15606613._000005.MiniNtuple.root'
p105
aS'root://fax.mwt2.org:1094//pnfs/uchicago.edu/atlaslocalgroupdisk/rucio/user/schae/22/af/user.schae.15606613._000006.MiniNtuple.root'
p106
aS'root://fax.mwt2.org:1094//pnfs/uchicago.edu/atlaslocalgroupdisk/rucio/user/schae/5e/8c/user.schae.15606613._000007.MiniNtuple.root'
p107
aS'root://fax.mwt2.org:1094//pnfs/uchicago.edu/atlaslocalgroupdisk/rucio/user/schae/14/6f/user.schae.15606613._000008.MiniNtuple.root'
p108
asS'user.schae.v13Loose.361031.Pythia8EvtGen_A14NNPDF23LO_jetjet_JZ11W.e3569_s3126_r9364_p3575_MiniNtuple.root                     '
p109
(lp110
S'root://fax.mwt2.org:1094//pnfs/uchicago.edu/atlaslocalgroupdisk/rucio/user/schae/f8/e8/user.schae.15606612._000001.MiniNtuple.root'
p111
aS'root://fax.mwt2.org:1094//pnfs/uchicago.edu/atlaslocalgroupdisk/rucio/user/schae/91/f8/user.schae.15606612._000002.MiniNtuple.root'
p112
aS'root://fax.mwt2.org:1094//pnfs/uchicago.edu/atlaslocalgroupdisk/rucio/user/schae/36/d7/user.schae.15606612._000003.MiniNtuple.root'
p113
aS'root://fax.mwt2.org:1094//pnfs/uchicago.edu/atlaslocalgroupdisk/rucio/user/schae/9c/ba/user.schae.15606612._000004.MiniNtuple.root'
p114
aS'root://fax.mwt2.org:1094//pnfs/uchicago.edu/atlaslocalgroupdisk/rucio/user/schae/55/57/user.schae.15606612._000005.MiniNtuple.root'
p115
aS'root://fax.mwt2.org:1094//pnfs/uchicago.edu/atlaslocalgroupdisk/rucio/user/schae/98/95/user.schae.15606612._000006.MiniNtuple.root'
p116
aS'root://fax.mwt2.org:1094//pnfs/uchicago.edu/atlaslocalgroupdisk/rucio/user/schae/ba/cf/user.schae.15606612._000007.MiniNtuple.root'
p117
aS'root://fax.mwt2.org:1094//pnfs/uchicago.edu/atlaslocalgroupdisk/rucio/user/schae/07/36/user.schae.15606612._000008.MiniNtuple.root'
p118
aS'root://fax.mwt2.org:1094//pnfs/uchicago.edu/atlaslocalgroupdisk/rucio/user/schae/80/72/user.schae.15606612._000009.MiniNtuple.root'
p119
aS'root://fax.mwt2.org:1094//pnfs/uchicago.edu/atlaslocalgroupdisk/rucio/user/schae/24/18/user.schae.15606612._000010.MiniNtuple.root'
p120
asS'user.schae.v13Loose.364115.Sherpa_221_NNPDF30NNLO_Zee_MAXHTPTV0_70_CFilterBVeto.e5299_s3126_r9364_p3575_MiniNtuple.root        '
p121
(lp122
S'root://fax.mwt2.org:1094//pnfs/uchicago.edu/atlaslocalgroupdisk/rucio/user/schae/02/30/user.schae.15606522._000001.MiniNtuple.root'
p123
aS'root://fax.mwt2.org:1094//pnfs/uchicago.edu/atlaslocalgroupdisk/rucio/user/schae/9c/8a/user.schae.15606522._000002.MiniNtuple.root'
p124
asS'user.schae.v13Loose.364250.Sherpa_222_NNPDF30NNLO_llll.e5894_s3126_r9364_p3575_MiniNtuple.root'
p125
(lp126
S'root://fax.mwt2.org:1094//pnfs/uchicago.edu/atlaslocalgroupdisk/rucio/user/schae/81/7f/user.schae.15606645._000001.MiniNtuple.root'
p127
aS'root://fax.mwt2.org:1094//pnfs/uchicago.edu/atlaslocalgroupdisk/rucio/user/schae/da/1e/user.schae.15606645._000002.MiniNtuple.root'
p128
asS'user.schae.v13Loose.410471.PhPy8EG_A14_ttbar_hdamp258p75_allhad.e6337_s3126_r9364_p3575_MiniNtuple.root'
p129
(lp130
S'root://fax.mwt2.org:1094//pnfs/uchicago.edu/atlaslocalgroupdisk/rucio/user/schae/70/8d/user.schae.15606643._000001.MiniNtuple.root'
p131
aS'root://fax.mwt2.org:1094//pnfs/uchicago.edu/atlaslocalgroupdisk/rucio/user/schae/98/0d/user.schae.15606643._000002.MiniNtuple.root'
p132
aS'root://fax.mwt2.org:1094//pnfs/uchicago.edu/atlaslocalgroupdisk/rucio/user/schae/9b/d5/user.schae.15606643._000003.MiniNtuple.root'
p133
aS'root://fax.mwt2.org:1094//pnfs/uchicago.edu/atlaslocalgroupdisk/rucio/user/schae/cb/ad/user.schae.15606643._000004.MiniNtuple.root'
p134
asS'user.schae.v13Loose.308098.Sherpa_221_NNPDF30NNLO_Wtaunu2jets_Min_N_TChannel.e5767_s3126_r9364_p3575_MiniNtuple.root           '
p135
(lp136
S'root://fax.mwt2.org:1094//pnfs/uchicago.edu/atlaslocalgroupdisk/rucio/user/schae/5b/0a/user.schae.15606437._000001.MiniNtuple.root'
p137
asS'user.schae.v13Loose.364144.Sherpa_221_NNPDF30NNLO_Znunu_MAXHTPTV0_70_BFilter.e5308_s3126_r9364_p3575_MiniNtuple.root           '
p138
(lp139
S'root://fax.mwt2.org:1094//pnfs/uchicago.edu/atlaslocalgroupdisk/rucio/user/schae/ea/4b/user.schae.15606597._000001.MiniNtuple.root'
p140
asS'user.schae.v13Loose.364206.Sherpa_221_NN30NNLO_Zee_Mll10_40_MAXHTPTV70_280_BVeto.e5421_s3126_r9364_p3575_MiniNtuple.root       '
p141
(lp142
S'root://fax.mwt2.org:1094//pnfs/uchicago.edu/atlaslocalgroupdisk/rucio/user/schae/d0/18/user.schae.15606633._000001.MiniNtuple.root'
p143
aS'root://fax.mwt2.org:1094//pnfs/uchicago.edu/atlaslocalgroupdisk/rucio/user/schae/e6/65/user.schae.15606633._000002.MiniNtuple.root'
p144
asS'user.schae.v13Loose.364210.Sherpa_221_NN30NNLO_Ztt_Mll10_40_MAXHTPTV0_70_BVeto.e5421_s3126_r9364_p3575_MiniNtuple.root'
p145
(lp146
S'root://fax.mwt2.org:1094//pnfs/uchicago.edu/atlaslocalgroupdisk/rucio/user/schae/1b/3e/user.schae.15606637._000001.MiniNtuple.root'
p147
aS'root://fax.mwt2.org:1094//pnfs/uchicago.edu/atlaslocalgroupdisk/rucio/user/schae/be/72/user.schae.15606637._000002.MiniNtuple.root'
p148
asS'user.schae.v13Loose.410026.PowhegPythiaEvtGen_P2012_SingleTopSchan_noAllHad_antitop.e3998_s3126_r9364_p3575_MiniNtuple.root'
p149
(lp150
S'root://fax.mwt2.org:1094//pnfs/uchicago.edu/atlaslocalgroupdisk/rucio/user/schae/bd/fd/user.schae.15606620._000001.MiniNtuple.root'
p151
asS'user.schae.v13Loose.364191.Sherpa_221_NNPDF30NNLO_Wtaunu_MAXHTPTV140_280_CFilterBVeto.e5340_s3126_r9364_p3575_MiniNtuple.root  '
p152
(lp153
S'root://fax.mwt2.org:1094//pnfs/uchicago.edu/atlaslocalgroupdisk/rucio/user/schae/db/84/user.schae.15606508._000001.MiniNtuple.root'
p154
aS'root://fax.mwt2.org:1094//pnfs/uchicago.edu/atlaslocalgroupdisk/rucio/user/schae/a9/2e/user.schae.15606508._000002.MiniNtuple.root'
p155
aS'root://fax.mwt2.org:1094//pnfs/uchicago.edu/atlaslocalgroupdisk/rucio/user/schae/8e/29/user.schae.15606508._000003.MiniNtuple.root'
p156
asS'user.schae.v13Loose.364119.Sherpa_221_NNPDF30NNLO_Zee_MAXHTPTV70_140_BFilter.e5299_s3126_r9364_p3575_MiniNtuple.root           '
p157
(lp158
S'root://fax.mwt2.org:1094//pnfs/uchicago.edu/atlaslocalgroupdisk/rucio/user/schae/17/8e/user.schae.15606529._000001.MiniNtuple.root'
p159
aS'root://fax.mwt2.org:1094//pnfs/uchicago.edu/atlaslocalgroupdisk/rucio/user/schae/28/6e/user.schae.15606529._000002.MiniNtuple.root'
p160
aS'root://fax.mwt2.org:1094//pnfs/uchicago.edu/atlaslocalgroupdisk/rucio/user/schae/f1/37/user.schae.15606529._000003.MiniNtuple.root'
p161
asS'user.schae.v13Loose.308072.PowhegPythia8EvtGen_CT10_AZNLO_ZH125J_MINLO_jj_ZZinv.e5831_s3126_r9364_p3575_MiniNtuple.root'
p162
(lp163
S'root://fax.mwt2.org:1094//pnfs/uchicago.edu/atlaslocalgroupdisk/rucio/user/schae/18/d0/user.schae.15606410._000001.MiniNtuple.root'
p164
asS'user.schae.v13Loose.364170.Sherpa_221_NNPDF30NNLO_Wenu_MAXHTPTV0_70_CVetoBVeto.e5340_s3126_r9364_p3575_MiniNtuple.root'
p165
(lp166
S'root://fax.mwt2.org:1094//pnfs/uchicago.edu/atlaslocalgroupdisk/rucio/user/schae/09/c1/user.schae.15606439._000001.MiniNtuple.root'
p167
aS'root://fax.mwt2.org:1094//pnfs/uchicago.edu/atlaslocalgroupdisk/rucio/user/schae/5b/cb/user.schae.15606439._000002.MiniNtuple.root'
p168
asS'user.schae.v13Loose.308284.PowhegPythia8EvtGen_NNLOPS_nnlo_30_ggH125_ZZ4nu_MET75.e6126_s3126_r9364_p3575_MiniNtuple.root       '
p169
(lp170
S'root://fax.mwt2.org:1094//pnfs/uchicago.edu/atlaslocalgroupdisk/rucio/user/schae/4d/96/user.schae.15606407._000001.MiniNtuple.root'
p171
asS'user.schae.v13Loose.410013.PowhegPythiaEvtGen_P2012_Wt_inclusive_top.e3753_s3126_r9364_p3575_MiniNtuple.root'
p172
(lp173
S'root://fax.mwt2.org:1094//pnfs/uchicago.edu/atlaslocalgroupdisk/rucio/user/schae/7a/ce/user.schae.15606617._000001.MiniNtuple.root'
p174
aS'root://fax.mwt2.org:1094//pnfs/uchicago.edu/atlaslocalgroupdisk/rucio/user/schae/c5/41/user.schae.15606617._000002.MiniNtuple.root'
p175
aS'root://fax.mwt2.org:1094//pnfs/uchicago.edu/atlaslocalgroupdisk/rucio/user/schae/9e/89/user.schae.15606617._000003.MiniNtuple.root'
p176
asS'user.schae.v13Loose.364186.Sherpa_221_NNPDF30NNLO_Wtaunu_MAXHTPTV0_70_BFilter.e5340_s3126_r9364_p3575_MiniNtuple.root          '
p177
(lp178
S'root://fax.mwt2.org:1094//pnfs/uchicago.edu/atlaslocalgroupdisk/rucio/user/schae/e8/9c/user.schae.15606499._000001.MiniNtuple.root'
p179
aS'root://fax.mwt2.org:1094//pnfs/uchicago.edu/atlaslocalgroupdisk/rucio/user/schae/8a/11/user.schae.15606499._000002.MiniNtuple.root'
p180
asS'user.schae.v13Loose.364244.Sherpa_222_NNPDF30NNLO_WWZ_2l4v_EW6.e5887_s3126_r9364_p3575_MiniNtuple.root'
p181
(lp182
S'root://fax.mwt2.org:1094//pnfs/uchicago.edu/atlaslocalgroupdisk/rucio/user/schae/35/6b/user.schae.15606650._000001.MiniNtuple.root'
p183
asS'user.schae.v13Loose.364152.Sherpa_221_NNPDF30NNLO_Znunu_MAXHTPTV280_500_CFilterBVeto.e5308_s3126_r9364_p3575_MiniNtuple.root   '
p184
(lp185
S'root://fax.mwt2.org:1094//pnfs/uchicago.edu/atlaslocalgroupdisk/rucio/user/schae/1e/b8/user.schae.15606606._000001.MiniNtuple.root'
p186
aS'root://fax.mwt2.org:1094//pnfs/uchicago.edu/atlaslocalgroupdisk/rucio/user/schae/2a/af/user.schae.15606606._000002.MiniNtuple.root'
p187
asS'user.schae.v13Loose.364130.Sherpa_221_NNPDF30NNLO_Ztautau_MAXHTPTV0_70_BFilter.e5307_s3126_r9364_p3575_MiniNtuple.root         '
p188
(lp189
S'root://fax.mwt2.org:1094//pnfs/uchicago.edu/atlaslocalgroupdisk/rucio/user/schae/1f/d8/user.schae.15606576._000001.MiniNtuple.root'
p190
aS'root://fax.mwt2.org:1094//pnfs/uchicago.edu/atlaslocalgroupdisk/rucio/user/schae/23/8f/user.schae.15606576._000002.MiniNtuple.root'
p191
aS'root://fax.mwt2.org:1094//pnfs/uchicago.edu/atlaslocalgroupdisk/rucio/user/schae/b8/d4/user.schae.15606576._000003.MiniNtuple.root'
p192
asS'user.schae.v13Loose.364150.Sherpa_221_NNPDF30NNLO_Znunu_MAXHTPTV140_280_BFilter.e5308_s3126_r9364_p3575_MiniNtuple.root        '
p193
(lp194
S'root://fax.mwt2.org:1094//pnfs/uchicago.edu/atlaslocalgroupdisk/rucio/user/schae/ed/46/user.schae.15606604._000001.MiniNtuple.root'
p195
aS'root://fax.mwt2.org:1094//pnfs/uchicago.edu/atlaslocalgroupdisk/rucio/user/schae/84/53/user.schae.15606604._000002.MiniNtuple.root'
p196
aS'root://fax.mwt2.org:1094//pnfs/uchicago.edu/atlaslocalgroupdisk/rucio/user/schae/ac/66/user.schae.15606604._000003.MiniNtuple.root'
p197
aS'root://fax.mwt2.org:1094//pnfs/uchicago.edu/atlaslocalgroupdisk/rucio/user/schae/b5/bb/user.schae.15606604._000004.MiniNtuple.root'
p198
aS'root://fax.mwt2.org:1094//pnfs/uchicago.edu/atlaslocalgroupdisk/rucio/user/schae/b2/cf/user.schae.15606604._000005.MiniNtuple.root'
p199
asS'user.schae.v13Loose.364243.Sherpa_222_NNPDF30NNLO_WWZ_4l2v_EW6.e5887_s3126_r9364_p3575_MiniNtuple.root'
p200
(lp201
S'root://fax.mwt2.org:1094//pnfs/uchicago.edu/atlaslocalgroupdisk/rucio/user/schae/a1/04/user.schae.15606649._000001.MiniNtuple.root'
p202
asS'user.schae.v13Loose.364146.Sherpa_221_NNPDF30NNLO_Znunu_MAXHTPTV70_140_CFilterBVeto.e5308_s3126_r9364_p3575_MiniNtuple.root    '
p203
(lp204
S'root://fax.mwt2.org:1094//pnfs/uchicago.edu/atlaslocalgroupdisk/rucio/user/schae/b4/44/user.schae.15606599._000001.MiniNtuple.root'
p205
aS'root://fax.mwt2.org:1094//pnfs/uchicago.edu/atlaslocalgroupdisk/rucio/user/schae/2a/7b/user.schae.15606599._000002.MiniNtuple.root'
p206
asS'user.schae.v13Loose.363357.Sherpa_221_NNPDF30NNLO_WqqZvv.e5525_s3126_r9364_p3575_MiniNtuple.root                               '
p207
(lp208
S'root://fax.mwt2.org:1094//pnfs/uchicago.edu/atlaslocalgroupdisk/rucio/user/schae/ef/0b/user.schae.15606416._000001.MiniNtuple.root'
p209
aS'root://fax.mwt2.org:1094//pnfs/uchicago.edu/atlaslocalgroupdisk/rucio/user/schae/2a/9b/user.schae.15606416._000002.MiniNtuple.root'
p210
asS'user.schae.v13Loose.364142.Sherpa_221_NNPDF30NNLO_Znunu_MAXHTPTV0_70_CVetoBVeto.e5308_s3126_r9364_p3575_MiniNtuple.root        '
p211
(lp212
S'root://fax.mwt2.org:1094//pnfs/uchicago.edu/atlaslocalgroupdisk/rucio/user/schae/9f/5c/user.schae.15606594._000001.MiniNtuple.root'
p213
asS'user.schae.v13Loose.364199.Sherpa_221_NN30NNLO_Zmm_Mll10_40_MAXHTPTV0_70_BFilter.e5421_s3126_r9364_p3575_MiniNtuple.root       '
p214
(lp215
S'root://fax.mwt2.org:1094//pnfs/uchicago.edu/atlaslocalgroupdisk/rucio/user/schae/f7/48/user.schae.15606626._000001.MiniNtuple.root'
p216
aS'root://fax.mwt2.org:1094//pnfs/uchicago.edu/atlaslocalgroupdisk/rucio/user/schae/09/69/user.schae.15606626._000002.MiniNtuple.root'
p217
asS'user.schae.v13Loose.345099.Sherpa_221_NNPDF30NNLO_Zmumu_MAXHTPTV0_70_VBFfilt.e5679_s3126_r9364_p3575_MiniNtuple.root           '
p218
(lp219
S'root://fax.mwt2.org:1094//pnfs/uchicago.edu/atlaslocalgroupdisk/rucio/user/schae/46/b9/user.schae.15606623._000001.MiniNtuple.root'
p220
aS'root://fax.mwt2.org:1094//pnfs/uchicago.edu/atlaslocalgroupdisk/rucio/user/schae/c3/aa/user.schae.15606623._000002.MiniNtuple.root'
p221
aS'root://fax.mwt2.org:1094//pnfs/uchicago.edu/atlaslocalgroupdisk/rucio/user/schae/0a/db/user.schae.15606623._000003.MiniNtuple.root'
p222
asS'user.schae.v13Loose.364246.Sherpa_222_NNPDF30NNLO_WZZ_3l3v_EW6.e5887_s3126_r9364_p3575_MiniNtuple.root'
p223
(lp224
S'root://fax.mwt2.org:1094//pnfs/uchicago.edu/atlaslocalgroupdisk/rucio/user/schae/42/d4/user.schae.15606652._000001.MiniNtuple.root'
p225
asS'user.schae.v13Loose.426006.PowhegPythia8EvtGen_A14_NNPDF23LO_CT10ME_jetjet_JZ6.e3788_s3126_r9364_p3575_MiniNtuple.root'
p226
(lp227
S'root://fax.mwt2.org:1094//pnfs/uchicago.edu/atlaslocalgroupdisk/rucio/user/schae/cb/50/user.schae.15606663._000001.MiniNtuple.root'
p228
aS'root://fax.mwt2.org:1094//pnfs/uchicago.edu/atlaslocalgroupdisk/rucio/user/schae/8e/d0/user.schae.15606663._000002.MiniNtuple.root'
p229
asS'user.schae.v13Loose.364139.Sherpa_221_NNPDF30NNLO_Ztautau_MAXHTPTV280_500_BFilter.e5313_s3126_r9364_p3575_MiniNtuple.root      '
p230
(lp231
S'root://fax.mwt2.org:1094//pnfs/uchicago.edu/atlaslocalgroupdisk/rucio/user/schae/89/f6/user.schae.15606591._000001.MiniNtuple.root'
p232
aS'root://fax.mwt2.org:1094//pnfs/uchicago.edu/atlaslocalgroupdisk/rucio/user/schae/c1/69/user.schae.15606591._000002.MiniNtuple.root'
p233
asS'user.schae.v13Loose.364209.Sherpa_221_NN30NNLO_Zee_Mll10_40_MAXHTPTV280_E_CMS_BFilter.e5421_s3126_r9364_p3575_MiniNtuple.root'
p234
(lp235
S'root://fax.mwt2.org:1094//pnfs/uchicago.edu/atlaslocalgroupdisk/rucio/user/schae/a8/be/user.schae.15606636._000001.MiniNtuple.root'
p236
aS'root://fax.mwt2.org:1094//pnfs/uchicago.edu/atlaslocalgroupdisk/rucio/user/schae/d2/65/user.schae.15606636._000002.MiniNtuple.root'
p237
asS'user.schae.v13Loose.364196.Sherpa_221_NNPDF30NNLO_Wtaunu_MAXHTPTV500_1000.e5340_s3126_r9364_p3575_MiniNtuple.root              '
p238
(lp239
S'root://fax.mwt2.org:1094//pnfs/uchicago.edu/atlaslocalgroupdisk/rucio/user/schae/c1/b0/user.schae.15606517._000001.MiniNtuple.root'
p240
aS'root://fax.mwt2.org:1094//pnfs/uchicago.edu/atlaslocalgroupdisk/rucio/user/schae/c1/7b/user.schae.15606517._000002.MiniNtuple.root'
p241
aS'root://fax.mwt2.org:1094//pnfs/uchicago.edu/atlaslocalgroupdisk/rucio/user/schae/80/1a/user.schae.15606517._000003.MiniNtuple.root'
p242
aS'root://fax.mwt2.org:1094//pnfs/uchicago.edu/atlaslocalgroupdisk/rucio/user/schae/f3/54/user.schae.15606517._000004.MiniNtuple.root'
p243
asS'user.schae.v13Loose.364192.Sherpa_221_NNPDF30NNLO_Wtaunu_MAXHTPTV140_280_BFilter.e5340_s3126_r9364_p3575_MiniNtuple.root       '
p244
(lp245
S'root://fax.mwt2.org:1094//pnfs/uchicago.edu/atlaslocalgroupdisk/rucio/user/schae/95/f6/user.schae.15606510._000002.MiniNtuple.root'
p246
aS'root://fax.mwt2.org:1094//pnfs/uchicago.edu/atlaslocalgroupdisk/rucio/user/schae/46/9a/user.schae.15606510._000003.MiniNtuple.root'
p247
aS'root://fax.mwt2.org:1094//pnfs/uchicago.edu/atlaslocalgroupdisk/rucio/user/schae/0d/7f/user.schae.15606510._000004.MiniNtuple.root'
p248
aS'root://fax.mwt2.org:1094//pnfs/uchicago.edu/atlaslocalgroupdisk/rucio/user/schae/b2/65/user.schae.15606510._000005.MiniNtuple.root'
p249
aS'root://fax.mwt2.org:1094//pnfs/uchicago.edu/atlaslocalgroupdisk/rucio/user/schae/eb/7d/user.schae.15606510._000006.MiniNtuple.root'
p250
aS'root://fax.mwt2.org:1094//pnfs/uchicago.edu/atlaslocalgroupdisk/rucio/user/schae/d7/18/user.schae.15606510._000007.MiniNtuple.root'
p251
aS'root://fax.mwt2.org:1094//pnfs/uchicago.edu/atlaslocalgroupdisk/rucio/user/schae/ff/65/user.schae.15606510._000008.MiniNtuple.root'
p252
aS'root://fax.mwt2.org:1094//pnfs/uchicago.edu/atlaslocalgroupdisk/rucio/user/schae/70/9b/user.schae.15606510._000009.MiniNtuple.root'
p253
aS'root://fax.mwt2.org:1094//pnfs/uchicago.edu/atlaslocalgroupdisk/rucio/user/schae/98/8f/user.schae.15606510._000010.MiniNtuple.root'
p254
asS'user.schae.v13Loose.426007.PowhegPythia8EvtGen_A14_NNPDF23LO_CT10ME_jetjet_JZ7.e3788_s3126_r9364_p3575_MiniNtuple.root'
p255
(lp256
S'root://fax.mwt2.org:1094//pnfs/uchicago.edu/atlaslocalgroupdisk/rucio/user/schae/cf/5a/user.schae.15606665._000001.MiniNtuple.root'
p257
aS'root://fax.mwt2.org:1094//pnfs/uchicago.edu/atlaslocalgroupdisk/rucio/user/schae/aa/10/user.schae.15606665._000002.MiniNtuple.root'
p258
asS'user.schae.v13Loose.364207.Sherpa_221_NN30NNLO_Zee_Mll10_40_MAXHTPTV70_280_BFilter.e5421_s3126_r9364_p3575_MiniNtuple.root'
p259
(lp260
S'root://fax.mwt2.org:1094//pnfs/uchicago.edu/atlaslocalgroupdisk/rucio/user/schae/be/7e/user.schae.15606634._000001.MiniNtuple.root'
p261
aS'root://fax.mwt2.org:1094//pnfs/uchicago.edu/atlaslocalgroupdisk/rucio/user/schae/57/af/user.schae.15606634._000002.MiniNtuple.root'
p262
asS'user.schae.v13Loose.426005.PowhegPythia8EvtGen_A14_NNPDF23LO_CT10ME_jetjet_JZ5.e3788_s3126_r9364_p3575_MiniNtuple.root'
p263
(lp264
S'root://fax.mwt2.org:1094//pnfs/uchicago.edu/atlaslocalgroupdisk/rucio/user/schae/9d/05/user.schae.15606662._000001.MiniNtuple.root'
p265
aS'root://fax.mwt2.org:1094//pnfs/uchicago.edu/atlaslocalgroupdisk/rucio/user/schae/c2/41/user.schae.15606662._000002.MiniNtuple.root'
p266
asS'user.schae.v13Loose.364163.Sherpa_221_NNPDF30NNLO_Wmunu_MAXHTPTV140_280_CFilterBVeto.e5340_s3126_r9364_p3575_MiniNtuple.root'
p267
(lp268
S'root://fax.mwt2.org:1094//pnfs/uchicago.edu/atlaslocalgroupdisk/rucio/user/schae/19/40/user.schae.15606482._000001.MiniNtuple.root'
p269
aS'root://fax.mwt2.org:1094//pnfs/uchicago.edu/atlaslocalgroupdisk/rucio/user/schae/e4/7d/user.schae.15606482._000002.MiniNtuple.root'
p270
aS'root://fax.mwt2.org:1094//pnfs/uchicago.edu/atlaslocalgroupdisk/rucio/user/schae/89/cd/user.schae.15606482._000003.MiniNtuple.root'
p271
aS'root://fax.mwt2.org:1094//pnfs/uchicago.edu/atlaslocalgroupdisk/rucio/user/schae/5f/d1/user.schae.15606482._000004.MiniNtuple.root'
p272
asS'user.schae.v13Loose.364138.Sherpa_221_NNPDF30NNLO_Ztautau_MAXHTPTV280_500_CFilterBVeto.e5313_s3126_r9364_p3575_MiniNtuple.root '
p273
(lp274
S'root://fax.mwt2.org:1094//pnfs/uchicago.edu/atlaslocalgroupdisk/rucio/user/schae/5c/3d/user.schae.15606590._000001.MiniNtuple.root'
p275
aS'root://fax.mwt2.org:1094//pnfs/uchicago.edu/atlaslocalgroupdisk/rucio/user/schae/62/55/user.schae.15606590._000002.MiniNtuple.root'
p276
asS'user.schae.v13Loose.364161.Sherpa_221_NNPDF30NNLO_Wmunu_MAXHTPTV70_140_BFilter.e5340_s3126_r9364_p3575_MiniNtuple.root'
p277
(lp278
S'root://fax.mwt2.org:1094//pnfs/uchicago.edu/atlaslocalgroupdisk/rucio/user/schae/c3/9c/user.schae.15606478._000001.MiniNtuple.root'
p279
aS'root://fax.mwt2.org:1094//pnfs/uchicago.edu/atlaslocalgroupdisk/rucio/user/schae/2f/d4/user.schae.15606478._000002.MiniNtuple.root'
p280
aS'root://fax.mwt2.org:1094//pnfs/uchicago.edu/atlaslocalgroupdisk/rucio/user/schae/07/b4/user.schae.15606478._000003.MiniNtuple.root'
p281
aS'root://fax.mwt2.org:1094//pnfs/uchicago.edu/atlaslocalgroupdisk/rucio/user/schae/6e/49/user.schae.15606478._000004.MiniNtuple.root'
p282
aS'root://fax.mwt2.org:1094//pnfs/uchicago.edu/atlaslocalgroupdisk/rucio/user/schae/13/21/user.schae.15606478._000005.MiniNtuple.root'
p283
asS'user.schae.v13Loose.364122.Sherpa_221_NNPDF30NNLO_Zee_MAXHTPTV140_280_BFilter.e5299_s3126_r9364_p3575_MiniNtuple.root          '
p284
(lp285
S'root://fax.mwt2.org:1094//pnfs/uchicago.edu/atlaslocalgroupdisk/rucio/user/schae/e2/a0/user.schae.15606535._000001.MiniNtuple.root'
p286
aS'root://fax.mwt2.org:1094//pnfs/uchicago.edu/atlaslocalgroupdisk/rucio/user/schae/be/5c/user.schae.15606535._000002.MiniNtuple.root'
p287
aS'root://fax.mwt2.org:1094//pnfs/uchicago.edu/atlaslocalgroupdisk/rucio/user/schae/a1/99/user.schae.15606535._000003.MiniNtuple.root'
p288
aS'root://fax.mwt2.org:1094//pnfs/uchicago.edu/atlaslocalgroupdisk/rucio/user/schae/46/2a/user.schae.15606535._000004.MiniNtuple.root'
p289
aS'root://fax.mwt2.org:1094//pnfs/uchicago.edu/atlaslocalgroupdisk/rucio/user/schae/36/e5/user.schae.15606535._000005.MiniNtuple.root'
p290
asS'user.schae.v13Loose.364195.Sherpa_221_NNPDF30NNLO_Wtaunu_MAXHTPTV280_500_BFilter.e5340_s3126_r9364_p3575_MiniNtuple.root       '
p291
(lp292
S'root://fax.mwt2.org:1094//pnfs/uchicago.edu/atlaslocalgroupdisk/rucio/user/schae/5b/cc/user.schae.15606515._000001.MiniNtuple.root'
p293
aS'root://fax.mwt2.org:1094//pnfs/uchicago.edu/atlaslocalgroupdisk/rucio/user/schae/fe/9b/user.schae.15606515._000002.MiniNtuple.root'
p294
aS'root://fax.mwt2.org:1094//pnfs/uchicago.edu/atlaslocalgroupdisk/rucio/user/schae/1f/3f/user.schae.15606515._000003.MiniNtuple.root'
p295
asS'user.schae.v13Loose.364141.Sherpa_221_NNPDF30NNLO_Ztautau_MAXHTPTV1000_E_CMS.e5307_s3126_r9364_p3575_MiniNtuple.root           '
p296
(lp297
S'root://fax.mwt2.org:1094//pnfs/uchicago.edu/atlaslocalgroupdisk/rucio/user/schae/48/d5/user.schae.15606593._000001.MiniNtuple.root'
p298
aS'root://fax.mwt2.org:1094//pnfs/uchicago.edu/atlaslocalgroupdisk/rucio/user/schae/2e/18/user.schae.15606593._000002.MiniNtuple.root'
p299
asS'user.schae.v13Loose.364102.Sherpa_221_NNPDF30NNLO_Zmumu_MAXHTPTV0_70_BFilter.e5271_s3126_r9364_p3575_MiniNtuple.root           '
p300
(lp301
S'root://fax.mwt2.org:1094//pnfs/uchicago.edu/atlaslocalgroupdisk/rucio/user/schae/26/74/user.schae.15606549._000001.MiniNtuple.root'
p302
aS'root://fax.mwt2.org:1094//pnfs/uchicago.edu/atlaslocalgroupdisk/rucio/user/schae/59/aa/user.schae.15606549._000002.MiniNtuple.root'
p303
asS'user.schae.v13Loose.364120.Sherpa_221_NNPDF30NNLO_Zee_MAXHTPTV140_280_CVetoBVeto.e5299_s3126_r9364_p3575_MiniNtuple.root       '
p304
(lp305
S'root://fax.mwt2.org:1094//pnfs/uchicago.edu/atlaslocalgroupdisk/rucio/user/schae/7d/9f/user.schae.15606531._000001.MiniNtuple.root'
p306
aS'root://fax.mwt2.org:1094//pnfs/uchicago.edu/atlaslocalgroupdisk/rucio/user/schae/51/16/user.schae.15606531._000002.MiniNtuple.root'
p307
aS'root://fax.mwt2.org:1094//pnfs/uchicago.edu/atlaslocalgroupdisk/rucio/user/schae/a6/5a/user.schae.15606531._000003.MiniNtuple.root'
p308
asS'user.schae.v13Loose.364182.Sherpa_221_NNPDF30NNLO_Wenu_MAXHTPTV500_1000.e5340_s3126_r9364_p3575_MiniNtuple.root                '
p309
(lp310
S'root://fax.mwt2.org:1094//pnfs/uchicago.edu/atlaslocalgroupdisk/rucio/user/schae/ec/1d/user.schae.15606465._000001.MiniNtuple.root'
p311
aS'root://fax.mwt2.org:1094//pnfs/uchicago.edu/atlaslocalgroupdisk/rucio/user/schae/56/bf/user.schae.15606465._000002.MiniNtuple.root'
p312
aS'root://fax.mwt2.org:1094//pnfs/uchicago.edu/atlaslocalgroupdisk/rucio/user/schae/01/b2/user.schae.15606465._000003.MiniNtuple.root'
p313
aS'root://fax.mwt2.org:1094//pnfs/uchicago.edu/atlaslocalgroupdisk/rucio/user/schae/cd/ca/user.schae.15606465._000004.MiniNtuple.root'
p314
asS'user.schae.v13Loose.364124.Sherpa_221_NNPDF30NNLO_Zee_MAXHTPTV280_500_CFilterBVeto.e5299_s3126_r9364_p3575_MiniNtuple.root     '
p315
(lp316
S'root://fax.mwt2.org:1094//pnfs/uchicago.edu/atlaslocalgroupdisk/rucio/user/schae/3e/76/user.schae.15606538._000001.MiniNtuple.root'
p317
aS'root://fax.mwt2.org:1094//pnfs/uchicago.edu/atlaslocalgroupdisk/rucio/user/schae/94/c4/user.schae.15606538._000002.MiniNtuple.root'
p318
aS'root://fax.mwt2.org:1094//pnfs/uchicago.edu/atlaslocalgroupdisk/rucio/user/schae/44/03/user.schae.15606538._000003.MiniNtuple.root'
p319
asS'user.schae.v13Loose.361029.Pythia8EvtGen_A14NNPDF23LO_jetjet_JZ9W.e3569_s3126_r9364_p3575_MiniNtuple.root                      '
p320
(lp321
S'root://fax.mwt2.org:1094//pnfs/uchicago.edu/atlaslocalgroupdisk/rucio/user/schae/f0/b6/user.schae.15606610._000001.MiniNtuple.root'
p322
aS'root://fax.mwt2.org:1094//pnfs/uchicago.edu/atlaslocalgroupdisk/rucio/user/schae/fb/66/user.schae.15606610._000002.MiniNtuple.root'
p323
aS'root://fax.mwt2.org:1094//pnfs/uchicago.edu/atlaslocalgroupdisk/rucio/user/schae/47/96/user.schae.15606610._000003.MiniNtuple.root'
p324
aS'root://fax.mwt2.org:1094//pnfs/uchicago.edu/atlaslocalgroupdisk/rucio/user/schae/a4/43/user.schae.15606610._000004.MiniNtuple.root'
p325
aS'root://fax.mwt2.org:1094//pnfs/uchicago.edu/atlaslocalgroupdisk/rucio/user/schae/8c/ec/user.schae.15606610._000005.MiniNtuple.root'
p326
asS'user.schae.v13Loose.364127.Sherpa_221_NNPDF30NNLO_Zee_MAXHTPTV1000_E_CMS.e5299_s3126_r9364_p3575_MiniNtuple.root               '
p327
(lp328
S'root://fax.mwt2.org:1094//pnfs/uchicago.edu/atlaslocalgroupdisk/rucio/user/schae/bf/a1/user.schae.15606544._000001.MiniNtuple.root'
p329
aS'root://fax.mwt2.org:1094//pnfs/uchicago.edu/atlaslocalgroupdisk/rucio/user/schae/de/c2/user.schae.15606544._000002.MiniNtuple.root'
p330
asS'user.schae.v13Loose.308097.Sherpa_221_NNPDF30NNLO_Wmunu2jets_Min_N_TChannel.e5767_s3126_r9364_p3575_MiniNtuple.root            '
p331
(lp332
S'root://fax.mwt2.org:1094//pnfs/uchicago.edu/atlaslocalgroupdisk/rucio/user/schae/3a/87/user.schae.15606435._000001.MiniNtuple.root'
p333
asS'user.schae.v13Loose.410025.PowhegPythiaEvtGen_P2012_SingleTopSchan_noAllHad_top.e3998_s3126_r9364_p3575_MiniNtuple.root'
p334
(lp335
S'root://fax.mwt2.org:1094//pnfs/uchicago.edu/atlaslocalgroupdisk/rucio/user/schae/75/f8/user.schae.15606619._000001.MiniNtuple.root'
p336
aS'root://fax.mwt2.org:1094//pnfs/uchicago.edu/atlaslocalgroupdisk/rucio/user/schae/31/3e/user.schae.15606619._000002.MiniNtuple.root'
p337
aS'root://fax.mwt2.org:1094//pnfs/uchicago.edu/atlaslocalgroupdisk/rucio/user/schae/53/50/user.schae.15606619._000003.MiniNtuple.root'
p338
asS'user.schae.v13Loose.410011.PowhegPythiaEvtGen_P2012_singletop_tchan_lept_top.e3824_s3126_r9364_p3575_MiniNtuple.root'
p339
(lp340
S'root://fax.mwt2.org:1094//pnfs/uchicago.edu/atlaslocalgroupdisk/rucio/user/schae/e6/c6/user.schae.15606615._000001.MiniNtuple.root'
p341
aS'root://fax.mwt2.org:1094//pnfs/uchicago.edu/atlaslocalgroupdisk/rucio/user/schae/4c/a0/user.schae.15606615._000002.MiniNtuple.root'
p342
aS'root://fax.mwt2.org:1094//pnfs/uchicago.edu/atlaslocalgroupdisk/rucio/user/schae/a2/9a/user.schae.15606615._000003.MiniNtuple.root'
p343
asS'user.schae.v13Loose.364116.Sherpa_221_NNPDF30NNLO_Zee_MAXHTPTV0_70_BFilter.e5299_s3126_r9364_p3575_MiniNtuple.root             '
p344
(lp345
S'root://fax.mwt2.org:1094//pnfs/uchicago.edu/atlaslocalgroupdisk/rucio/user/schae/a7/50/user.schae.15606524._000001.MiniNtuple.root'
p346
aS'root://fax.mwt2.org:1094//pnfs/uchicago.edu/atlaslocalgroupdisk/rucio/user/schae/ca/d9/user.schae.15606524._000002.MiniNtuple.root'
p347
asS'user.schae.v13Loose.364184.Sherpa_221_NNPDF30NNLO_Wtaunu_MAXHTPTV0_70_CVetoBVeto.e5340_s3126_r9364_p3575_MiniNtuple.root       '
p348
(lp349
S'root://fax.mwt2.org:1094//pnfs/uchicago.edu/atlaslocalgroupdisk/rucio/user/schae/3e/45/user.schae.15606496._000001.MiniNtuple.root'
p350
aS'root://fax.mwt2.org:1094//pnfs/uchicago.edu/atlaslocalgroupdisk/rucio/user/schae/30/9a/user.schae.15606496._000002.MiniNtuple.root'
p351
asS'user.schae.v13Loose.426001.PowhegPythia8EvtGen_A14_NNPDF23LO_CT10ME_jetjet_JZ1.e3788_s3126_r9364_p3575_MiniNtuple.root'
p352
(lp353
S'root://fax.mwt2.org:1094//pnfs/uchicago.edu/atlaslocalgroupdisk/rucio/user/schae/59/e2/user.schae.15606656._000001.MiniNtuple.root'
p354
aS'root://fax.mwt2.org:1094//pnfs/uchicago.edu/atlaslocalgroupdisk/rucio/user/schae/ff/1a/user.schae.15606656._000002.MiniNtuple.root'
p355
asS'user.schae.v13Loose.364185.Sherpa_221_NNPDF30NNLO_Wtaunu_MAXHTPTV0_70_CFilterBVeto.e5340_s3126_r9364_p3575_MiniNtuple.root     '
p356
(lp357
S'root://fax.mwt2.org:1094//pnfs/uchicago.edu/atlaslocalgroupdisk/rucio/user/schae/ff/89/user.schae.15606498._000001.MiniNtuple.root'
p358
aS'root://fax.mwt2.org:1094//pnfs/uchicago.edu/atlaslocalgroupdisk/rucio/user/schae/5a/d4/user.schae.15606498._000002.MiniNtuple.root'
p359
asS'user.schae.v13Loose.364173.Sherpa_221_NNPDF30NNLO_Wenu_MAXHTPTV70_140_CVetoBVeto.e5340_s3126_r9364_p3575_MiniNtuple.root'
p360
(lp361
S'root://fax.mwt2.org:1094//pnfs/uchicago.edu/atlaslocalgroupdisk/rucio/user/schae/a4/e6/user.schae.15606445._000001.MiniNtuple.root'
p362
aS'root://fax.mwt2.org:1094//pnfs/uchicago.edu/atlaslocalgroupdisk/rucio/user/schae/64/c4/user.schae.15606445._000002.MiniNtuple.root'
p363
aS'root://fax.mwt2.org:1094//pnfs/uchicago.edu/atlaslocalgroupdisk/rucio/user/schae/96/e2/user.schae.15606445._000003.MiniNtuple.root'
p364
asS'user.schae.v13Loose.364108.Sherpa_221_NNPDF30NNLO_Zmumu_MAXHTPTV140_280_BFilter.e5271_s3126_r9364_p3575_MiniNtuple.root        '
p365
(lp366
S'root://fax.mwt2.org:1094//pnfs/uchicago.edu/atlaslocalgroupdisk/rucio/user/schae/ae/ed/user.schae.15606560._000001.MiniNtuple.root'
p367
aS'root://fax.mwt2.org:1094//pnfs/uchicago.edu/atlaslocalgroupdisk/rucio/user/schae/90/2a/user.schae.15606560._000002.MiniNtuple.root'
p368
aS'root://fax.mwt2.org:1094//pnfs/uchicago.edu/atlaslocalgroupdisk/rucio/user/schae/5a/ca/user.schae.15606560._000003.MiniNtuple.root'
p369
aS'root://fax.mwt2.org:1094//pnfs/uchicago.edu/atlaslocalgroupdisk/rucio/user/schae/31/b1/user.schae.15606560._000004.MiniNtuple.root'
p370
asS'user.schae.v13Loose.364212.Sherpa_221_NN30NNLO_Ztt_Mll10_40_MAXHTPTV70_280_BVeto.e5421_s3126_r9364_p3575_MiniNtuple.root'
p371
(lp372
S'root://fax.mwt2.org:1094//pnfs/uchicago.edu/atlaslocalgroupdisk/rucio/user/schae/02/ef/user.schae.15606639._000001.MiniNtuple.root'
p373
aS'root://fax.mwt2.org:1094//pnfs/uchicago.edu/atlaslocalgroupdisk/rucio/user/schae/ac/b3/user.schae.15606639._000002.MiniNtuple.root'
p374
aS'root://fax.mwt2.org:1094//pnfs/uchicago.edu/atlaslocalgroupdisk/rucio/user/schae/48/f5/user.schae.15606639._000003.MiniNtuple.root'
p375
asS'user.schae.v13Loose.364211.Sherpa_221_NN30NNLO_Ztt_Mll10_40_MAXHTPTV0_70_BFilter.e5421_s3126_r9364_p3575_MiniNtuple.root'
p376
(lp377
S'root://fax.mwt2.org:1094//pnfs/uchicago.edu/atlaslocalgroupdisk/rucio/user/schae/cb/61/user.schae.15606638._000001.MiniNtuple.root'
p378
aS'root://fax.mwt2.org:1094//pnfs/uchicago.edu/atlaslocalgroupdisk/rucio/user/schae/55/13/user.schae.15606638._000002.MiniNtuple.root'
p379
asS'user.schae.v13Loose.364132.Sherpa_221_NNPDF30NNLO_Ztautau_MAXHTPTV70_140_CFilterBVeto.e5307_s3126_r9364_p3575_MiniNtuple.root  '
p380
(lp381
S'root://fax.mwt2.org:1094//pnfs/uchicago.edu/atlaslocalgroupdisk/rucio/user/schae/41/9f/user.schae.15606581._000001.MiniNtuple.root'
p382
aS'root://fax.mwt2.org:1094//pnfs/uchicago.edu/atlaslocalgroupdisk/rucio/user/schae/cc/e9/user.schae.15606581._000002.MiniNtuple.root'
p383
aS'root://fax.mwt2.org:1094//pnfs/uchicago.edu/atlaslocalgroupdisk/rucio/user/schae/0b/31/user.schae.15606581._000003.MiniNtuple.root'
p384
asS'user.schae.v13Loose.364140.Sherpa_221_NNPDF30NNLO_Ztautau_MAXHTPTV500_1000.e5307_s3126_r9364_p3575_MiniNtuple.root             '
p385
(lp386
S'root://fax.mwt2.org:1094//pnfs/uchicago.edu/atlaslocalgroupdisk/rucio/user/schae/45/5b/user.schae.15606592._000001.MiniNtuple.root'
p387
aS'root://fax.mwt2.org:1094//pnfs/uchicago.edu/atlaslocalgroupdisk/rucio/user/schae/37/98/user.schae.15606592._000002.MiniNtuple.root'
p388
aS'root://fax.mwt2.org:1094//pnfs/uchicago.edu/atlaslocalgroupdisk/rucio/user/schae/27/d7/user.schae.15606592._000003.MiniNtuple.root'
p389
asS'user.schae.v13Loose.364111.Sherpa_221_NNPDF30NNLO_Zmumu_MAXHTPTV280_500_BFilter.e5271_s3126_r9364_p3575_MiniNtuple.root        '
p390
(lp391
S'root://fax.mwt2.org:1094//pnfs/uchicago.edu/atlaslocalgroupdisk/rucio/user/schae/fc/15/user.schae.15606566._000001.MiniNtuple.root'
p392
aS'root://fax.mwt2.org:1094//pnfs/uchicago.edu/atlaslocalgroupdisk/rucio/user/schae/13/bc/user.schae.15606566._000002.MiniNtuple.root'
p393
asS'user.schae.v13Loose.364135.Sherpa_221_NNPDF30NNLO_Ztautau_MAXHTPTV140_280_CFilterBVeto.e5307_s3126_r9364_p3575_MiniNtuple.root '
p394
(lp395
S'root://fax.mwt2.org:1094//pnfs/uchicago.edu/atlaslocalgroupdisk/rucio/user/schae/1c/19/user.schae.15606585._000001.MiniNtuple.root'
p396
aS'root://fax.mwt2.org:1094//pnfs/uchicago.edu/atlaslocalgroupdisk/rucio/user/schae/f0/09/user.schae.15606585._000002.MiniNtuple.root'
p397
asS'user.schae.v13Loose.364149.Sherpa_221_NNPDF30NNLO_Znunu_MAXHTPTV140_280_CFilterBVeto.e5308_s3126_r9364_p3575_MiniNtuple.root   '
p398
(lp399
S'root://fax.mwt2.org:1094//pnfs/uchicago.edu/atlaslocalgroupdisk/rucio/user/schae/41/04/user.schae.15606603._000001.MiniNtuple.root'
p400
aS'root://fax.mwt2.org:1094//pnfs/uchicago.edu/atlaslocalgroupdisk/rucio/user/schae/c5/92/user.schae.15606603._000002.MiniNtuple.root'
p401
aS'root://fax.mwt2.org:1094//pnfs/uchicago.edu/atlaslocalgroupdisk/rucio/user/schae/86/4f/user.schae.15606603._000003.MiniNtuple.root'
p402
aS'root://fax.mwt2.org:1094//pnfs/uchicago.edu/atlaslocalgroupdisk/rucio/user/schae/69/76/user.schae.15606603._000004.MiniNtuple.root'
p403
asS'user.schae.v13Loose.364155.Sherpa_221_NNPDF30NNLO_Znunu_MAXHTPTV1000_E_CMS.e5308_s3126_r9364_p3575_MiniNtuple.root             '
p404
(lp405
S'root://fax.mwt2.org:1094//pnfs/uchicago.edu/atlaslocalgroupdisk/rucio/user/schae/b1/d1/user.schae.15606609._000001.MiniNtuple.root'
p406
aS'root://fax.mwt2.org:1094//pnfs/uchicago.edu/atlaslocalgroupdisk/rucio/user/schae/39/ae/user.schae.15606609._000002.MiniNtuple.root'
p407
asS'user.schae.v13Loose.364201.Sherpa_221_NN30NNLO_Zmm_Mll10_40_MAXHTPTV70_280_BFilter.e5421_s3126_r9364_p3575_MiniNtuple.root     '
p408
(lp409
S'root://fax.mwt2.org:1094//pnfs/uchicago.edu/atlaslocalgroupdisk/rucio/user/schae/91/b2/user.schae.15606628._000001.MiniNtuple.root'
p410
aS'root://fax.mwt2.org:1094//pnfs/uchicago.edu/atlaslocalgroupdisk/rucio/user/schae/76/28/user.schae.15606628._000002.MiniNtuple.root'
p411
asS'user.schae.v13Loose.364147.Sherpa_221_NNPDF30NNLO_Znunu_MAXHTPTV70_140_BFilter.e5308_s3126_r9364_p3575_MiniNtuple.root         '
p412
(lp413
S'root://fax.mwt2.org:1094//pnfs/uchicago.edu/atlaslocalgroupdisk/rucio/user/schae/66/db/user.schae.15606601._000001.MiniNtuple.root'
p414
aS'root://fax.mwt2.org:1094//pnfs/uchicago.edu/atlaslocalgroupdisk/rucio/user/schae/a4/29/user.schae.15606601._000002.MiniNtuple.root'
p415
asS'user.schae.v13Loose.364193.Sherpa_221_NNPDF30NNLO_Wtaunu_MAXHTPTV280_500_CVetoBVeto.e5340_s3126_r9364_p3575_MiniNtuple.root    '
p416
(lp417
S'root://fax.mwt2.org:1094//pnfs/uchicago.edu/atlaslocalgroupdisk/rucio/user/schae/3d/c3/user.schae.15606511._000001.MiniNtuple.root'
p418
aS'root://fax.mwt2.org:1094//pnfs/uchicago.edu/atlaslocalgroupdisk/rucio/user/schae/5f/d9/user.schae.15606511._000002.MiniNtuple.root'
p419
aS'root://fax.mwt2.org:1094//pnfs/uchicago.edu/atlaslocalgroupdisk/rucio/user/schae/68/16/user.schae.15606511._000003.MiniNtuple.root'
p420
aS'root://fax.mwt2.org:1094//pnfs/uchicago.edu/atlaslocalgroupdisk/rucio/user/schae/90/fb/user.schae.15606511._000004.MiniNtuple.root'
p421
asS'user.schae.v13Loose.364179.Sherpa_221_NNPDF30NNLO_Wenu_MAXHTPTV280_500_CVetoBVeto.e5340_s3126_r9364_p3575_MiniNtuple.root      '
p422
(lp423
S'root://fax.mwt2.org:1094//pnfs/uchicago.edu/atlaslocalgroupdisk/rucio/user/schae/19/aa/user.schae.15606457._000001.MiniNtuple.root'
p424
aS'root://fax.mwt2.org:1094//pnfs/uchicago.edu/atlaslocalgroupdisk/rucio/user/schae/5e/65/user.schae.15606457._000002.MiniNtuple.root'
p425
aS'root://fax.mwt2.org:1094//pnfs/uchicago.edu/atlaslocalgroupdisk/rucio/user/schae/a8/9b/user.schae.15606457._000003.MiniNtuple.root'
p426
aS'root://fax.mwt2.org:1094//pnfs/uchicago.edu/atlaslocalgroupdisk/rucio/user/schae/a5/de/user.schae.15606457._000004.MiniNtuple.root'
p427
asS'user.schae.v13Loose.345102.Sherpa_221_NNPDF30NNLO_Zee_MAXHTPTV70_140_VBFfilt.e5679_s3126_r9364_p3575_MiniNtuple.root           '
p428
(lp429
S'root://fax.mwt2.org:1094//pnfs/uchicago.edu/atlaslocalgroupdisk/rucio/user/schae/73/44/user.schae.15606622._000001.MiniNtuple.root'
p430
aS'root://fax.mwt2.org:1094//pnfs/uchicago.edu/atlaslocalgroupdisk/rucio/user/schae/ad/69/user.schae.15606622._000002.MiniNtuple.root'
p431
asS'user.schae.v13Loose.364189.Sherpa_221_NNPDF30NNLO_Wtaunu_MAXHTPTV70_140_BFilter.e5340_s3126_r9364_p3575_MiniNtuple.root        '
p432
(lp433
S'root://fax.mwt2.org:1094//pnfs/uchicago.edu/atlaslocalgroupdisk/rucio/user/schae/96/2f/user.schae.15606504._000001.MiniNtuple.root'
p434
aS'root://fax.mwt2.org:1094//pnfs/uchicago.edu/atlaslocalgroupdisk/rucio/user/schae/9b/5c/user.schae.15606504._000002.MiniNtuple.root'
p435
asS'user.schae.v13Loose.364162.Sherpa_221_NNPDF30NNLO_Wmunu_MAXHTPTV140_280_CVetoBVeto.e5340_s3126_r9364_p3575_MiniNtuple.root'
p436
(lp437
S'root://fax.mwt2.org:1094//pnfs/uchicago.edu/atlaslocalgroupdisk/rucio/user/schae/eb/b5/user.schae.15606480._000001.MiniNtuple.root'
p438
aS'root://fax.mwt2.org:1094//pnfs/uchicago.edu/atlaslocalgroupdisk/rucio/user/schae/11/52/user.schae.15606480._000002.MiniNtuple.root'
p439
aS'root://fax.mwt2.org:1094//pnfs/uchicago.edu/atlaslocalgroupdisk/rucio/user/schae/db/45/user.schae.15606480._000003.MiniNtuple.root'
p440
aS'root://fax.mwt2.org:1094//pnfs/uchicago.edu/atlaslocalgroupdisk/rucio/user/schae/14/7c/user.schae.15606480._000004.MiniNtuple.root'
p441
asS'user.schae.v13Loose.364168.Sherpa_221_NNPDF30NNLO_Wmunu_MAXHTPTV500_1000.e5340_s3126_r9364_p3575_MiniNtuple.root'
p442
(lp443
S'root://fax.mwt2.org:1094//pnfs/uchicago.edu/atlaslocalgroupdisk/rucio/user/schae/28/58/user.schae.15606492._000001.MiniNtuple.root'
p444
aS'root://fax.mwt2.org:1094//pnfs/uchicago.edu/atlaslocalgroupdisk/rucio/user/schae/b3/54/user.schae.15606492._000002.MiniNtuple.root'
p445
aS'root://fax.mwt2.org:1094//pnfs/uchicago.edu/atlaslocalgroupdisk/rucio/user/schae/90/87/user.schae.15606492._000003.MiniNtuple.root'
p446
aS'root://fax.mwt2.org:1094//pnfs/uchicago.edu/atlaslocalgroupdisk/rucio/user/schae/1c/c3/user.schae.15606492._000004.MiniNtuple.root'
p447
asS'user.schae.v13Loose.364154.Sherpa_221_NNPDF30NNLO_Znunu_MAXHTPTV500_1000.e5308_s3126_r9364_p3575_MiniNtuple.root               '
p448
(lp449
S'root://fax.mwt2.org:1094//pnfs/uchicago.edu/atlaslocalgroupdisk/rucio/user/schae/5a/93/user.schae.15606608._000001.MiniNtuple.root'
p450
aS'root://fax.mwt2.org:1094//pnfs/uchicago.edu/atlaslocalgroupdisk/rucio/user/schae/84/a8/user.schae.15606608._000002.MiniNtuple.root'
p451
aS'root://fax.mwt2.org:1094//pnfs/uchicago.edu/atlaslocalgroupdisk/rucio/user/schae/79/a3/user.schae.15606608._000003.MiniNtuple.root'
p452
asS'user.schae.v13Loose.364176.Sherpa_221_NNPDF30NNLO_Wenu_MAXHTPTV140_280_CVetoBVeto.e5340_s3126_r9364_p3575_MiniNtuple.root      '
p453
(lp454
S'root://fax.mwt2.org:1094//pnfs/uchicago.edu/atlaslocalgroupdisk/rucio/user/schae/3a/c6/user.schae.15606450._000001.MiniNtuple.root'
p455
aS'root://fax.mwt2.org:1094//pnfs/uchicago.edu/atlaslocalgroupdisk/rucio/user/schae/60/98/user.schae.15606450._000002.MiniNtuple.root'
p456
aS'root://fax.mwt2.org:1094//pnfs/uchicago.edu/atlaslocalgroupdisk/rucio/user/schae/45/6f/user.schae.15606450._000003.MiniNtuple.root'
p457
asS'user.schae.v13Loose.364178.Sherpa_221_NNPDF30NNLO_Wenu_MAXHTPTV140_280_BFilter.e5340_s3126_r9364_p3575_MiniNtuple.root         '
p458
(lp459
S'root://fax.mwt2.org:1094//pnfs/uchicago.edu/atlaslocalgroupdisk/rucio/user/schae/25/03/user.schae.15606454._000001.MiniNtuple.root'
p460
aS'root://fax.mwt2.org:1094//pnfs/uchicago.edu/atlaslocalgroupdisk/rucio/user/schae/53/d5/user.schae.15606454._000002.MiniNtuple.root'
p461
aS'root://fax.mwt2.org:1094//pnfs/uchicago.edu/atlaslocalgroupdisk/rucio/user/schae/8f/e1/user.schae.15606454._000003.MiniNtuple.root'
p462
aS'root://fax.mwt2.org:1094//pnfs/uchicago.edu/atlaslocalgroupdisk/rucio/user/schae/e0/05/user.schae.15606454._000004.MiniNtuple.root'
p463
aS'root://fax.mwt2.org:1094//pnfs/uchicago.edu/atlaslocalgroupdisk/rucio/user/schae/93/b8/user.schae.15606454._000005.MiniNtuple.root'
p464
aS'root://fax.mwt2.org:1094//pnfs/uchicago.edu/atlaslocalgroupdisk/rucio/user/schae/91/f9/user.schae.15606454._000006.MiniNtuple.root'
p465
aS'root://fax.mwt2.org:1094//pnfs/uchicago.edu/atlaslocalgroupdisk/rucio/user/schae/c4/5a/user.schae.15606454._000007.MiniNtuple.root'
p466
aS'root://fax.mwt2.org:1094//pnfs/uchicago.edu/atlaslocalgroupdisk/rucio/user/schae/4d/9d/user.schae.15606454._000008.MiniNtuple.root'
p467
asS'user.schae.v13Loose.410470.PhPy8EG_A14_ttbar_hdamp258p75_nonallhad.e6337_s3126_r9364_p3575_MiniNtuple.root'
p468
(lp469
S'root://fax.mwt2.org:1094//pnfs/uchicago.edu/atlaslocalgroupdisk/rucio/user/schae/c5/f4/user.schae.15606614._000001.MiniNtuple.root'
p470
aS'root://fax.mwt2.org:1094//pnfs/uchicago.edu/atlaslocalgroupdisk/rucio/user/schae/e8/42/user.schae.15606614._000002.MiniNtuple.root'
p471
aS'root://fax.mwt2.org:1094//pnfs/uchicago.edu/atlaslocalgroupdisk/rucio/user/schae/b8/25/user.schae.15606614._000003.MiniNtuple.root'
p472
aS'root://fax.mwt2.org:1094//pnfs/uchicago.edu/atlaslocalgroupdisk/rucio/user/schae/90/95/user.schae.15606614._000004.MiniNtuple.root'
p473
aS'root://fax.mwt2.org:1094//pnfs/uchicago.edu/atlaslocalgroupdisk/rucio/user/schae/61/2e/user.schae.15606614._000005.MiniNtuple.root'
p474
aS'root://fax.mwt2.org:1094//pnfs/uchicago.edu/atlaslocalgroupdisk/rucio/user/schae/50/18/user.schae.15606614._000006.MiniNtuple.root'
p475
aS'root://fax.mwt2.org:1094//pnfs/uchicago.edu/atlaslocalgroupdisk/rucio/user/schae/0e/7b/user.schae.15606614._000007.MiniNtuple.root'
p476
aS'root://fax.mwt2.org:1094//pnfs/uchicago.edu/atlaslocalgroupdisk/rucio/user/schae/b2/ba/user.schae.15606614._000008.MiniNtuple.root'
p477
aS'root://fax.mwt2.org:1094//pnfs/uchicago.edu/atlaslocalgroupdisk/rucio/user/schae/c2/7e/user.schae.15606614._000009.MiniNtuple.root'
p478
aS'root://fax.mwt2.org:1094//pnfs/uchicago.edu/atlaslocalgroupdisk/rucio/user/schae/36/f5/user.schae.15606614._000010.MiniNtuple.root'
p479
asS'user.schae.v13Loose.364109.Sherpa_221_NNPDF30NNLO_Zmumu_MAXHTPTV280_500_CVetoBVeto.e5271_s3126_r9364_p3575_MiniNtuple.root     '
p480
(lp481
S'root://fax.mwt2.org:1094//pnfs/uchicago.edu/atlaslocalgroupdisk/rucio/user/schae/07/12/user.schae.15606562._000001.MiniNtuple.root'
p482
aS'root://fax.mwt2.org:1094//pnfs/uchicago.edu/atlaslocalgroupdisk/rucio/user/schae/bd/4e/user.schae.15606562._000002.MiniNtuple.root'
p483
asS'user.schae.v13Loose.410012.PowhegPythiaEvtGen_P2012_singletop_tchan_lept_antitop.e3824_s3126_r9364_p3575_MiniNtuple.root'
p484
(lp485
S'root://fax.mwt2.org:1094//pnfs/uchicago.edu/atlaslocalgroupdisk/rucio/user/schae/a1/ce/user.schae.15606616._000001.MiniNtuple.root'
p486
aS'root://fax.mwt2.org:1094//pnfs/uchicago.edu/atlaslocalgroupdisk/rucio/user/schae/f0/ba/user.schae.15606616._000002.MiniNtuple.root'
p487
asS'user.schae.v13Loose.410014.PowhegPythiaEvtGen_P2012_Wt_inclusive_antitop.e3753_s3126_r9364_p3575_MiniNtuple.root'
p488
(lp489
S'root://fax.mwt2.org:1094//pnfs/uchicago.edu/atlaslocalgroupdisk/rucio/user/schae/39/9b/user.schae.15606618._000001.MiniNtuple.root'
p490
aS'root://fax.mwt2.org:1094//pnfs/uchicago.edu/atlaslocalgroupdisk/rucio/user/schae/49/9c/user.schae.15606618._000002.MiniNtuple.root'
p491
aS'root://fax.mwt2.org:1094//pnfs/uchicago.edu/atlaslocalgroupdisk/rucio/user/schae/91/f6/user.schae.15606618._000003.MiniNtuple.root'
p492
asS'user.schae.v13Loose.426008.PowhegPythia8EvtGen_A14_NNPDF23LO_CT10ME_jetjet_JZ8.e3788_s3126_r9364_p3575_MiniNtuple.root'
p493
(lp494
S'root://fax.mwt2.org:1094//pnfs/uchicago.edu/atlaslocalgroupdisk/rucio/user/schae/ce/8c/user.schae.15606666._000001.MiniNtuple.root'
p495
aS'root://fax.mwt2.org:1094//pnfs/uchicago.edu/atlaslocalgroupdisk/rucio/user/schae/2e/0c/user.schae.15606666._000002.MiniNtuple.root'
p496
aS'root://fax.mwt2.org:1094//pnfs/uchicago.edu/atlaslocalgroupdisk/rucio/user/schae/6f/f7/user.schae.15606666._000003.MiniNtuple.root'
p497
asS'user.schae.v13Loose.364169.Sherpa_221_NNPDF30NNLO_Wmunu_MAXHTPTV1000_E_CMS.e5340_s3126_r9364_p3575_MiniNtuple.root'
p498
(lp499
S'root://fax.mwt2.org:1094//pnfs/uchicago.edu/atlaslocalgroupdisk/rucio/user/schae/6e/e3/user.schae.15606494._000001.MiniNtuple.root'
p500
aS'root://fax.mwt2.org:1094//pnfs/uchicago.edu/atlaslocalgroupdisk/rucio/user/schae/ac/ab/user.schae.15606494._000002.MiniNtuple.root'
p501
aS'root://fax.mwt2.org:1094//pnfs/uchicago.edu/atlaslocalgroupdisk/rucio/user/schae/ca/89/user.schae.15606494._000003.MiniNtuple.root'
p502
asS'user.schae.v13Loose.345101.Sherpa_221_NNPDF30NNLO_Zee_MAXHTPTV0_70_VBFfilt.e5679_s3126_r9364_p3575_MiniNtuple.root             '
p503
(lp504
S'root://fax.mwt2.org:1094//pnfs/uchicago.edu/atlaslocalgroupdisk/rucio/user/schae/62/d6/user.schae.15606621._000001.MiniNtuple.root'
p505
aS'root://fax.mwt2.org:1094//pnfs/uchicago.edu/atlaslocalgroupdisk/rucio/user/schae/e8/34/user.schae.15606621._000002.MiniNtuple.root'
p506
asS'user.schae.v13Loose.364198.Sherpa_221_NN30NNLO_Zmm_Mll10_40_MAXHTPTV0_70_BVeto.e5421_s3126_r9364_p3575_MiniNtuple.root         '
p507
(lp508
S'root://fax.mwt2.org:1094//pnfs/uchicago.edu/atlaslocalgroupdisk/rucio/user/schae/d8/61/user.schae.15606625._000001.MiniNtuple.root'
p509
aS'root://fax.mwt2.org:1094//pnfs/uchicago.edu/atlaslocalgroupdisk/rucio/user/schae/b3/20/user.schae.15606625._000002.MiniNtuple.root'
p510
asS'user.schae.v13Loose.364190.Sherpa_221_NNPDF30NNLO_Wtaunu_MAXHTPTV140_280_CVetoBVeto.e5340_s3126_r9364_p3575_MiniNtuple.root    '
p511
(lp512
S'root://fax.mwt2.org:1094//pnfs/uchicago.edu/atlaslocalgroupdisk/rucio/user/schae/3c/ee/user.schae.15606506._000001.MiniNtuple.root'
p513
aS'root://fax.mwt2.org:1094//pnfs/uchicago.edu/atlaslocalgroupdisk/rucio/user/schae/40/f7/user.schae.15606506._000002.MiniNtuple.root'
p514
aS'root://fax.mwt2.org:1094//pnfs/uchicago.edu/atlaslocalgroupdisk/rucio/user/schae/dc/c1/user.schae.15606506._000003.MiniNtuple.root'
p515
asS'user.schae.v13Loose.364151.Sherpa_221_NNPDF30NNLO_Znunu_MAXHTPTV280_500_CVetoBVeto.e5308_s3126_r9364_p3575_MiniNtuple.root     '
p516
(lp517
S'root://fax.mwt2.org:1094//pnfs/uchicago.edu/atlaslocalgroupdisk/rucio/user/schae/6a/2c/user.schae.15606605._000001.MiniNtuple.root'
p518
aS'root://fax.mwt2.org:1094//pnfs/uchicago.edu/atlaslocalgroupdisk/rucio/user/schae/21/64/user.schae.15606605._000002.MiniNtuple.root'
p519
aS'root://fax.mwt2.org:1094//pnfs/uchicago.edu/atlaslocalgroupdisk/rucio/user/schae/61/cf/user.schae.15606605._000003.MiniNtuple.root'
p520
asS'user.schae.v13Loose.364114.Sherpa_221_NNPDF30NNLO_Zee_MAXHTPTV0_70_CVetoBVeto.e5299_s3126_r9364_p3575_MiniNtuple.root          '
p521
(lp522
S'root://fax.mwt2.org:1094//pnfs/uchicago.edu/atlaslocalgroupdisk/rucio/user/schae/cd/e3/user.schae.15606520._000001.MiniNtuple.root'
p523
aS'root://fax.mwt2.org:1094//pnfs/uchicago.edu/atlaslocalgroupdisk/rucio/user/schae/70/f7/user.schae.15606520._000002.MiniNtuple.root'
p524
asS'user.schae.v13Loose.364121.Sherpa_221_NNPDF30NNLO_Zee_MAXHTPTV140_280_CFilterBVeto.e5299_s3126_r9364_p3575_MiniNtuple.root     '
p525
(lp526
S'root://fax.mwt2.org:1094//pnfs/uchicago.edu/atlaslocalgroupdisk/rucio/user/schae/94/9f/user.schae.15606533._000001.MiniNtuple.root'
p527
aS'root://fax.mwt2.org:1094//pnfs/uchicago.edu/atlaslocalgroupdisk/rucio/user/schae/4d/a8/user.schae.15606533._000002.MiniNtuple.root'
p528
aS'root://fax.mwt2.org:1094//pnfs/uchicago.edu/atlaslocalgroupdisk/rucio/user/schae/1c/9d/user.schae.15606533._000003.MiniNtuple.root'
p529
asS'user.schae.v13Loose.364129.Sherpa_221_NNPDF30NNLO_Ztautau_MAXHTPTV0_70_CFilterBVeto.e5307_s3126_r9364_p3575_MiniNtuple.root    '
p530
(lp531
S'root://fax.mwt2.org:1094//pnfs/uchicago.edu/atlaslocalgroupdisk/rucio/user/schae/b9/c2/user.schae.15606574._000001.MiniNtuple.root'
p532
aS'root://fax.mwt2.org:1094//pnfs/uchicago.edu/atlaslocalgroupdisk/rucio/user/schae/43/72/user.schae.15606574._000002.MiniNtuple.root'
p533
asS'user.schae.v13Loose.364110.Sherpa_221_NNPDF30NNLO_Zmumu_MAXHTPTV280_500_CFilterBVeto.e5271_s3126_r9364_p3575_MiniNtuple.root   '
p534
(lp535
S'root://fax.mwt2.org:1094//pnfs/uchicago.edu/atlaslocalgroupdisk/rucio/user/schae/3f/50/user.schae.15606564._000001.MiniNtuple.root'
p536
aS'root://fax.mwt2.org:1094//pnfs/uchicago.edu/atlaslocalgroupdisk/rucio/user/schae/55/5c/user.schae.15606564._000002.MiniNtuple.root'
p537
asS'user.schae.v13Loose.364166.Sherpa_221_NNPDF30NNLO_Wmunu_MAXHTPTV280_500_CFilterBVeto.e5340_s3126_r9364_p3575_MiniNtuple.root'
p538
(lp539
S'root://fax.mwt2.org:1094//pnfs/uchicago.edu/atlaslocalgroupdisk/rucio/user/schae/5f/eb/user.schae.15606489._000001.MiniNtuple.root'
p540
aS'root://fax.mwt2.org:1094//pnfs/uchicago.edu/atlaslocalgroupdisk/rucio/user/schae/0b/81/user.schae.15606489._000002.MiniNtuple.root'
p541
asS'user.schae.v13Loose.363355.Sherpa_221_NNPDF30NNLO_ZqqZvv.e5525_s3126_r9364_p3575_MiniNtuple.root                               '
p542
(lp543
S'root://fax.mwt2.org:1094//pnfs/uchicago.edu/atlaslocalgroupdisk/rucio/user/schae/62/47/user.schae.15606412._000001.MiniNtuple.root'
p544
aS'root://fax.mwt2.org:1094//pnfs/uchicago.edu/atlaslocalgroupdisk/rucio/user/schae/56/21/user.schae.15606412._000002.MiniNtuple.root'
p545
asS'user.schae.v13Loose.363360.Sherpa_221_NNPDF30NNLO_WplvWmqq.e5983_s3126_r9364_p3575_MiniNtuple.root                             '
p546
(lp547
S'root://fax.mwt2.org:1094//pnfs/uchicago.edu/atlaslocalgroupdisk/rucio/user/schae/0f/aa/user.schae.15606422._000001.MiniNtuple.root'
p548
aS'root://fax.mwt2.org:1094//pnfs/uchicago.edu/atlaslocalgroupdisk/rucio/user/schae/89/6a/user.schae.15606422._000002.MiniNtuple.root'
p549
asS'user.schae.v13Loose.308092.Sherpa_221_NNPDF30NNLO_Zee2jets_Min_N_TChannel.e5767_s3126_r9364_p3575_MiniNtuple.root'
p550
(lp551
S'root://fax.mwt2.org:1094//pnfs/uchicago.edu/atlaslocalgroupdisk/rucio/user/schae/3e/e4/user.schae.15606426._000001.MiniNtuple.root'
p552
asS'user.schae.v13Loose.363489.Sherpa_221_NNPDF30NNLO_WlvZqq.e5525_s3126_r9364_p3575_MiniNtuple.root                               '
p553
(lp554
S'root://fax.mwt2.org:1094//pnfs/uchicago.edu/atlaslocalgroupdisk/rucio/user/schae/08/b0/user.schae.15606424._000001.MiniNtuple.root'
p555
aS'root://fax.mwt2.org:1094//pnfs/uchicago.edu/atlaslocalgroupdisk/rucio/user/schae/a9/20/user.schae.15606424._000002.MiniNtuple.root'
p556
asS'user.schae.v13Loose.363359.Sherpa_221_NNPDF30NNLO_WpqqWmlv.e5583_s3126_r9364_p3575_MiniNtuple.root                             '
p557
(lp558
S'root://fax.mwt2.org:1094//pnfs/uchicago.edu/atlaslocalgroupdisk/rucio/user/schae/e8/3e/user.schae.15606420._000001.MiniNtuple.root'
p559
aS'root://fax.mwt2.org:1094//pnfs/uchicago.edu/atlaslocalgroupdisk/rucio/user/schae/ed/a7/user.schae.15606420._000002.MiniNtuple.root'
p560
asS'user.schae.v13Loose.364183.Sherpa_221_NNPDF30NNLO_Wenu_MAXHTPTV1000_E_CMS.e5340_s3126_r9364_p3575_MiniNtuple.root              '
p561
(lp562
S'root://fax.mwt2.org:1094//pnfs/uchicago.edu/atlaslocalgroupdisk/rucio/user/schae/46/5c/user.schae.15606467._000001.MiniNtuple.root'
p563
aS'root://fax.mwt2.org:1094//pnfs/uchicago.edu/atlaslocalgroupdisk/rucio/user/schae/44/71/user.schae.15606467._000002.MiniNtuple.root'
p564
aS'root://fax.mwt2.org:1094//pnfs/uchicago.edu/atlaslocalgroupdisk/rucio/user/schae/a9/5e/user.schae.15606467._000003.MiniNtuple.root'
p565
aS'root://fax.mwt2.org:1094//pnfs/uchicago.edu/atlaslocalgroupdisk/rucio/user/schae/c7/e6/user.schae.15606467._000004.MiniNtuple.root'
p566
asS'user.schae.v13Loose.364131.Sherpa_221_NNPDF30NNLO_Ztautau_MAXHTPTV70_140_CVetoBVeto.e5307_s3126_r9364_p3575_MiniNtuple.root    '
p567
(lp568
S'root://fax.mwt2.org:1094//pnfs/uchicago.edu/atlaslocalgroupdisk/rucio/user/schae/2b/4d/user.schae.15606577._000001.MiniNtuple.root'
p569
aS'root://fax.mwt2.org:1094//pnfs/uchicago.edu/atlaslocalgroupdisk/rucio/user/schae/0b/a1/user.schae.15606577._000002.MiniNtuple.root'
p570
asS'user.schae.v13Loose.364160.Sherpa_221_NNPDF30NNLO_Wmunu_MAXHTPTV70_140_CFilterBVeto.e5340_s3126_r9364_p3575_MiniNtuple.root'
p571
(lp572
S'root://fax.mwt2.org:1094//pnfs/uchicago.edu/atlaslocalgroupdisk/rucio/user/schae/b2/70/user.schae.15606476._000001.MiniNtuple.root'
p573
aS'root://fax.mwt2.org:1094//pnfs/uchicago.edu/atlaslocalgroupdisk/rucio/user/schae/c3/96/user.schae.15606476._000002.MiniNtuple.root'
p574
asS'user.schae.v13Loose.364254.Sherpa_222_NNPDF30NNLO_llvv.e5916_s3126_r9364_p3575_MiniNtuple.root'
p575
(lp576
S'root://fax.mwt2.org:1094//pnfs/uchicago.edu/atlaslocalgroupdisk/rucio/user/schae/58/9a/user.schae.15606646._000001.MiniNtuple.root'
p577
aS'root://fax.mwt2.org:1094//pnfs/uchicago.edu/atlaslocalgroupdisk/rucio/user/schae/ee/a4/user.schae.15606646._000002.MiniNtuple.root'
p578
asS'user.schae.v13Loose.364118.Sherpa_221_NNPDF30NNLO_Zee_MAXHTPTV70_140_CFilterBVeto.e5299_s3126_r9364_p3575_MiniNtuple.root      '
p579
(lp580
S'root://fax.mwt2.org:1094//pnfs/uchicago.edu/atlaslocalgroupdisk/rucio/user/schae/b7/a2/user.schae.15606528._000001.MiniNtuple.root'
p581
aS'root://fax.mwt2.org:1094//pnfs/uchicago.edu/atlaslocalgroupdisk/rucio/user/schae/85/0a/user.schae.15606528._000002.MiniNtuple.root'
p582
asS'user.schae.v13Loose.308096.Sherpa_221_NNPDF30NNLO_Wenu2jets_Min_N_TChannel.e5789_s3126_r9364_p3575_MiniNtuple.root'
p583
(lp584
S'root://fax.mwt2.org:1094//pnfs/uchicago.edu/atlaslocalgroupdisk/rucio/user/schae/2c/f6/user.schae.15606433._000001.MiniNtuple.root'
p585
asS'user.schae.v13Loose.364255.Sherpa_222_NNPDF30NNLO_lvvv.e5916_s3126_r9364_p3575_MiniNtuple.root'
p586
(lp587
S'root://fax.mwt2.org:1094//pnfs/uchicago.edu/atlaslocalgroupdisk/rucio/user/schae/23/96/user.schae.15606647._000001.MiniNtuple.root'
p588
aS'root://fax.mwt2.org:1094//pnfs/uchicago.edu/atlaslocalgroupdisk/rucio/user/schae/31/6c/user.schae.15606647._000002.MiniNtuple.root'
p589
asS'user.schae.v13Loose.364172.Sherpa_221_NNPDF30NNLO_Wenu_MAXHTPTV0_70_BFilter.e5340_s3126_r9364_p3575_MiniNtuple.root'
p590
(lp591
S'root://fax.mwt2.org:1094//pnfs/uchicago.edu/atlaslocalgroupdisk/rucio/user/schae/e9/5b/user.schae.15606443._000001.MiniNtuple.root'
p592
aS'root://fax.mwt2.org:1094//pnfs/uchicago.edu/atlaslocalgroupdisk/rucio/user/schae/71/06/user.schae.15606443._000002.MiniNtuple.root'
p593
asS'user.schae.v13Loose.364247.Sherpa_222_NNPDF30NNLO_ZZZ_6l0v_EW6.e5887_s3126_r9364_p3575_MiniNtuple.root'
p594
(lp595
S'root://fax.mwt2.org:1094//pnfs/uchicago.edu/atlaslocalgroupdisk/rucio/user/schae/22/96/user.schae.15606653._000001.MiniNtuple.root'
p596
asS'user.schae.v13Loose.364106.Sherpa_221_NNPDF30NNLO_Zmumu_MAXHTPTV140_280_CVetoBVeto.e5271_s3126_r9364_p3575_MiniNtuple.root     '
p597
(lp598
S'root://fax.mwt2.org:1094//pnfs/uchicago.edu/atlaslocalgroupdisk/rucio/user/schae/2c/6c/user.schae.15606557._000001.MiniNtuple.root'
p599
aS'root://fax.mwt2.org:1094//pnfs/uchicago.edu/atlaslocalgroupdisk/rucio/user/schae/01/3c/user.schae.15606557._000002.MiniNtuple.root'
p600
aS'root://fax.mwt2.org:1094//pnfs/uchicago.edu/atlaslocalgroupdisk/rucio/user/schae/3e/5f/user.schae.15606557._000003.MiniNtuple.root'
p601
aS'root://fax.mwt2.org:1094//pnfs/uchicago.edu/atlaslocalgroupdisk/rucio/user/schae/e8/3a/user.schae.15606557._000004.MiniNtuple.root'
p602
asS'user.schae.v13Loose.308567.PowhegPy8EG_NNPDF30_AZNLOCTEQ6L1_VBFH125_ZZ4nu_125MET.e6126_s3126_r9364_p3575_MiniNtuple.root       '
p603
(lp604
S'root://fax.mwt2.org:1094//pnfs/uchicago.edu/atlaslocalgroupdisk/rucio/user/schae/12/ee/user.schae.15606405._000001.MiniNtuple.root'
p605
asS'user.schae.v13Loose.364187.Sherpa_221_NNPDF30NNLO_Wtaunu_MAXHTPTV70_140_CVetoBVeto.e5340_s3126_r9364_p3575_MiniNtuple.root     '
p606
(lp607
S'root://fax.mwt2.org:1094//pnfs/uchicago.edu/atlaslocalgroupdisk/rucio/user/schae/fc/7e/user.schae.15606501._000001.MiniNtuple.root'
p608
aS'root://fax.mwt2.org:1094//pnfs/uchicago.edu/atlaslocalgroupdisk/rucio/user/schae/38/98/user.schae.15606501._000002.MiniNtuple.root'
p609
aS'root://fax.mwt2.org:1094//pnfs/uchicago.edu/atlaslocalgroupdisk/rucio/user/schae/c8/82/user.schae.15606501._000003.MiniNtuple.root'
p610
asS'user.schae.v13Loose.364197.Sherpa_221_NNPDF30NNLO_Wtaunu_MAXHTPTV1000_E_CMS.e5340_s3126_r9364_p3575_MiniNtuple.root            '
p611
(lp612
S'root://fax.mwt2.org:1094//pnfs/uchicago.edu/atlaslocalgroupdisk/rucio/user/schae/01/d7/user.schae.15606518._000001.MiniNtuple.root'
p613
aS'root://fax.mwt2.org:1094//pnfs/uchicago.edu/atlaslocalgroupdisk/rucio/user/schae/f3/70/user.schae.15606518._000002.MiniNtuple.root'
p614
aS'root://fax.mwt2.org:1094//pnfs/uchicago.edu/atlaslocalgroupdisk/rucio/user/schae/c5/12/user.schae.15606518._000003.MiniNtuple.root'
p615
aS'root://fax.mwt2.org:1094//pnfs/uchicago.edu/atlaslocalgroupdisk/rucio/user/schae/91/cf/user.schae.15606518._000005.MiniNtuple.root'
p616
aS'root://fax.mwt2.org:1094//pnfs/uchicago.edu/atlaslocalgroupdisk/rucio/user/schae/10/08/user.schae.15606518._000006.MiniNtuple.root'
p617
asS'user.schae.v13Loose.364133.Sherpa_221_NNPDF30NNLO_Ztautau_MAXHTPTV70_140_BFilter.e5307_s3126_r9364_p3575_MiniNtuple.root       '
p618
(lp619
S'root://fax.mwt2.org:1094//pnfs/uchicago.edu/atlaslocalgroupdisk/rucio/user/schae/6f/55/user.schae.15606582._000001.MiniNtuple.root'
p620
aS'root://fax.mwt2.org:1094//pnfs/uchicago.edu/atlaslocalgroupdisk/rucio/user/schae/3f/b6/user.schae.15606582._000002.MiniNtuple.root'
p621
asS'user.schae.v13Loose.364153.Sherpa_221_NNPDF30NNLO_Znunu_MAXHTPTV280_500_BFilter.e5308_s3126_r9364_p3575_MiniNtuple.root        '
p622
(lp623
S'root://fax.mwt2.org:1094//pnfs/uchicago.edu/atlaslocalgroupdisk/rucio/user/schae/ea/a8/user.schae.15606607._000001.MiniNtuple.root'
p624
aS'root://fax.mwt2.org:1094//pnfs/uchicago.edu/atlaslocalgroupdisk/rucio/user/schae/df/95/user.schae.15606607._000002.MiniNtuple.root'
p625
aS'root://fax.mwt2.org:1094//pnfs/uchicago.edu/atlaslocalgroupdisk/rucio/user/schae/aa/e0/user.schae.15606607._000003.MiniNtuple.root'
p626
asS'user.schae.v13Loose.426009.PowhegPythia8EvtGen_A14_NNPDF23LO_CT10ME_jetjet_JZ9.e3788_s3126_r9364_p3575_MiniNtuple.root'
p627
(lp628
S'root://fax.mwt2.org:1094//pnfs/uchicago.edu/atlaslocalgroupdisk/rucio/user/schae/8a/36/user.schae.15606667._000001.MiniNtuple.root'
p629
aS'root://fax.mwt2.org:1094//pnfs/uchicago.edu/atlaslocalgroupdisk/rucio/user/schae/3d/cc/user.schae.15606667._000002.MiniNtuple.root'
p630
aS'root://fax.mwt2.org:1094//pnfs/uchicago.edu/atlaslocalgroupdisk/rucio/user/schae/c6/2d/user.schae.15606667._000003.MiniNtuple.root'
p631
asS'user.schae.v13Loose.364208.Sherpa_221_NN30NNLO_Zee_Mll10_40_MAXHTPTV280_E_CMS_BVeto.e5421_s3126_r9364_p3575_MiniNtuple.root'
p632
(lp633
S'root://fax.mwt2.org:1094//pnfs/uchicago.edu/atlaslocalgroupdisk/rucio/user/schae/6a/67/user.schae.15606635._000001.MiniNtuple.root'
p634
aS'root://fax.mwt2.org:1094//pnfs/uchicago.edu/atlaslocalgroupdisk/rucio/user/schae/c1/c3/user.schae.15606635._000002.MiniNtuple.root'
p635
aS'root://fax.mwt2.org:1094//pnfs/uchicago.edu/atlaslocalgroupdisk/rucio/user/schae/ec/9a/user.schae.15606635._000003.MiniNtuple.root'
p636
asS'user.schae.v13Loose.364158.Sherpa_221_NNPDF30NNLO_Wmunu_MAXHTPTV0_70_BFilter.e5340_s3126_r9364_p3575_MiniNtuple.root           '
p637
(lp638
S'root://fax.mwt2.org:1094//pnfs/uchicago.edu/atlaslocalgroupdisk/rucio/user/schae/43/3d/user.schae.15606472._000001.MiniNtuple.root'
p639
aS'root://fax.mwt2.org:1094//pnfs/uchicago.edu/atlaslocalgroupdisk/rucio/user/schae/d3/92/user.schae.15606472._000002.MiniNtuple.root'
p640
asS'user.schae.v13Loose.364143.Sherpa_221_NNPDF30NNLO_Znunu_MAXHTPTV0_70_CFilterBVeto.e5308_s3126_r9364_p3575_MiniNtuple.root      '
p641
(lp642
S'root://fax.mwt2.org:1094//pnfs/uchicago.edu/atlaslocalgroupdisk/rucio/user/schae/5e/71/user.schae.15606595._000001.MiniNtuple.root'
p643
asS'user.schae.v13Loose.364145.Sherpa_221_NNPDF30NNLO_Znunu_MAXHTPTV70_140_CVetoBVeto.e5308_s3126_r9364_p3575_MiniNtuple.root      '
p644
(lp645
S'root://fax.mwt2.org:1094//pnfs/uchicago.edu/atlaslocalgroupdisk/rucio/user/schae/97/86/user.schae.15606598._000001.MiniNtuple.root'
p646
aS'root://fax.mwt2.org:1094//pnfs/uchicago.edu/atlaslocalgroupdisk/rucio/user/schae/c4/94/user.schae.15606598._000002.MiniNtuple.root'
p647
asS'user.schae.v13Loose.364174.Sherpa_221_NNPDF30NNLO_Wenu_MAXHTPTV70_140_CFilterBVeto.e5340_s3126_r9364_p3575_MiniNtuple.root'
p648
(lp649
S'root://fax.mwt2.org:1094//pnfs/uchicago.edu/atlaslocalgroupdisk/rucio/user/schae/24/4c/user.schae.15606447._000001.MiniNtuple.root'
p650
aS'root://fax.mwt2.org:1094//pnfs/uchicago.edu/atlaslocalgroupdisk/rucio/user/schae/ad/3d/user.schae.15606447._000002.MiniNtuple.root'
p651
asS'user.schae.v13Loose.426004.PowhegPythia8EvtGen_A14_NNPDF23LO_CT10ME_jetjet_JZ4.e3788_s3126_r9364_p3575_MiniNtuple.root'
p652
(lp653
S'root://fax.mwt2.org:1094//pnfs/uchicago.edu/atlaslocalgroupdisk/rucio/user/schae/43/c4/user.schae.15606661._000001.MiniNtuple.root'
p654
asS'user.schae.v13Loose.364112.Sherpa_221_NNPDF30NNLO_Zmumu_MAXHTPTV500_1000.e5271_s3126_r9364_p3575_MiniNtuple.root               '
p655
(lp656
S'root://fax.mwt2.org:1094//pnfs/uchicago.edu/atlaslocalgroupdisk/rucio/user/schae/0b/bd/user.schae.15606568._000001.MiniNtuple.root'
p657
aS'root://fax.mwt2.org:1094//pnfs/uchicago.edu/atlaslocalgroupdisk/rucio/user/schae/96/4e/user.schae.15606568._000002.MiniNtuple.root'
p658
aS'root://fax.mwt2.org:1094//pnfs/uchicago.edu/atlaslocalgroupdisk/rucio/user/schae/cd/fb/user.schae.15606568._000003.MiniNtuple.root'
p659
asS'user.schae.v13Loose.364134.Sherpa_221_NNPDF30NNLO_Ztautau_MAXHTPTV140_280_CVetoBVeto.e5307_s3126_r9364_p3575_MiniNtuple.root   '
p660
(lp661
S'root://fax.mwt2.org:1094//pnfs/uchicago.edu/atlaslocalgroupdisk/rucio/user/schae/03/c6/user.schae.15606584._000001.MiniNtuple.root'
p662
aS'root://fax.mwt2.org:1094//pnfs/uchicago.edu/atlaslocalgroupdisk/rucio/user/schae/9f/ac/user.schae.15606584._000002.MiniNtuple.root'
p663
aS'root://fax.mwt2.org:1094//pnfs/uchicago.edu/atlaslocalgroupdisk/rucio/user/schae/29/87/user.schae.15606584._000003.MiniNtuple.root'
p664
asS'user.schae.v13Loose.364215.Sherpa_221_NN30NNLO_Ztt_Mll10_40_MAXHTPTV280_E_CMS_BFilter.e5421_s3126_r9364_p3575_MiniNtuple.root'
p665
(lp666
S'root://fax.mwt2.org:1094//pnfs/uchicago.edu/atlaslocalgroupdisk/rucio/user/schae/dd/e4/user.schae.15606642._000001.MiniNtuple.root'
p667
aS'root://fax.mwt2.org:1094//pnfs/uchicago.edu/atlaslocalgroupdisk/rucio/user/schae/1c/53/user.schae.15606642._000002.MiniNtuple.root'
p668
asS'user.schae.v13Loose.426002.PowhegPythia8EvtGen_A14_NNPDF23LO_CT10ME_jetjet_JZ2.e3788_s3126_r9364_p3575_MiniNtuple.root'
p669
(lp670
S'root://fax.mwt2.org:1094//pnfs/uchicago.edu/atlaslocalgroupdisk/rucio/user/schae/24/23/user.schae.15606658._000001.MiniNtuple.root'
p671
aS'root://fax.mwt2.org:1094//pnfs/uchicago.edu/atlaslocalgroupdisk/rucio/user/schae/c5/19/user.schae.15606658._000002.MiniNtuple.root'
p672
asS'user.schae.v13Loose.364202.Sherpa_221_NN30NNLO_Zmm_Mll10_40_MAXHTPTV280_E_CMS_BVeto.e5421_s3126_r9364_p3575_MiniNtuple.root'
p673
(lp674
S'root://fax.mwt2.org:1094//pnfs/uchicago.edu/atlaslocalgroupdisk/rucio/user/schae/dc/ae/user.schae.15606629._000001.MiniNtuple.root'
p675
aS'root://fax.mwt2.org:1094//pnfs/uchicago.edu/atlaslocalgroupdisk/rucio/user/schae/af/d3/user.schae.15606629._000002.MiniNtuple.root'
p676
aS'root://fax.mwt2.org:1094//pnfs/uchicago.edu/atlaslocalgroupdisk/rucio/user/schae/47/8e/user.schae.15606629._000003.MiniNtuple.root'
p677
asS'user.schae.v13Loose.364204.Sherpa_221_NN30NNLO_Zee_Mll10_40_MAXHTPTV0_70_BVeto.e5421_s3126_r9364_p3575_MiniNtuple.root'
p678
(lp679
S'root://fax.mwt2.org:1094//pnfs/uchicago.edu/atlaslocalgroupdisk/rucio/user/schae/ff/f2/user.schae.15606631._000001.MiniNtuple.root'
p680
aS'root://fax.mwt2.org:1094//pnfs/uchicago.edu/atlaslocalgroupdisk/rucio/user/schae/3d/70/user.schae.15606631._000002.MiniNtuple.root'
p681
asS'user.schae.v13Loose.426003.PowhegPythia8EvtGen_A14_NNPDF23LO_CT10ME_jetjet_JZ3.e3788_s3126_r9364_p3575_MiniNtuple.root'
p682
(lp683
S'root://fax.mwt2.org:1094//pnfs/uchicago.edu/atlaslocalgroupdisk/rucio/user/schae/44/04/user.schae.15606659._000001.MiniNtuple.root'
p684
aS'root://fax.mwt2.org:1094//pnfs/uchicago.edu/atlaslocalgroupdisk/rucio/user/schae/b7/91/user.schae.15606659._000002.MiniNtuple.root'
p685
asS'user.schae.v13Loose.363358.Sherpa_221_NNPDF30NNLO_WqqZll.e5525_s3126_r9364_p3575_MiniNtuple.root                               '
p686
(lp687
S'root://fax.mwt2.org:1094//pnfs/uchicago.edu/atlaslocalgroupdisk/rucio/user/schae/38/49/user.schae.15606418._000001.MiniNtuple.root'
p688
aS'root://fax.mwt2.org:1094//pnfs/uchicago.edu/atlaslocalgroupdisk/rucio/user/schae/a4/25/user.schae.15606418._000002.MiniNtuple.root'
p689
asS'user.schae.v13Loose.364159.Sherpa_221_NNPDF30NNLO_Wmunu_MAXHTPTV70_140_CVetoBVeto.e5340_s3126_r9364_p3575_MiniNtuple.root'
p690
(lp691
S'root://fax.mwt2.org:1094//pnfs/uchicago.edu/atlaslocalgroupdisk/rucio/user/schae/ce/ad/user.schae.15606474._000001.MiniNtuple.root'
p692
aS'root://fax.mwt2.org:1094//pnfs/uchicago.edu/atlaslocalgroupdisk/rucio/user/schae/6f/9e/user.schae.15606474._000002.MiniNtuple.root'
p693
asS'user.schae.v13Loose.364113.Sherpa_221_NNPDF30NNLO_Zmumu_MAXHTPTV1000_E_CMS.e5271_s3126_r9364_p3575_MiniNtuple.root             '
p694
(lp695
S'root://fax.mwt2.org:1094//pnfs/uchicago.edu/atlaslocalgroupdisk/rucio/user/schae/aa/94/user.schae.15606570._000001.MiniNtuple.root'
p696
aS'root://fax.mwt2.org:1094//pnfs/uchicago.edu/atlaslocalgroupdisk/rucio/user/schae/f4/7a/user.schae.15606570._000002.MiniNtuple.root'
p697
asS'user.schae.v13Loose.364125.Sherpa_221_NNPDF30NNLO_Zee_MAXHTPTV280_500_BFilter.e5299_s3126_r9364_p3575_MiniNtuple.root          '
p698
(lp699
S'root://fax.mwt2.org:1094//pnfs/uchicago.edu/atlaslocalgroupdisk/rucio/user/schae/6d/93/user.schae.15606540._000001.MiniNtuple.root'
p700
aS'root://fax.mwt2.org:1094//pnfs/uchicago.edu/atlaslocalgroupdisk/rucio/user/schae/23/aa/user.schae.15606540._000002.MiniNtuple.root'
p701
asS'user.schae.v13Loose.364157.Sherpa_221_NNPDF30NNLO_Wmunu_MAXHTPTV0_70_CFilterBVeto.e5340_s3126_r9364_p3575_MiniNtuple.root      '
p702
(lp703
S'root://fax.mwt2.org:1094//pnfs/uchicago.edu/atlaslocalgroupdisk/rucio/user/schae/7a/c1/user.schae.15606470._000001.MiniNtuple.root'
p704
aS'root://fax.mwt2.org:1094//pnfs/uchicago.edu/atlaslocalgroupdisk/rucio/user/schae/82/4d/user.schae.15606470._000002.MiniNtuple.root'
p705
asS'user.schae.v13Loose.364137.Sherpa_221_NNPDF30NNLO_Ztautau_MAXHTPTV280_500_CVetoBVeto.e5307_s3126_r9364_p3575_MiniNtuple.root   '
p706
(lp707
S'root://fax.mwt2.org:1094//pnfs/uchicago.edu/atlaslocalgroupdisk/rucio/user/schae/0f/5f/user.schae.15606589._000001.MiniNtuple.root'
p708
aS'root://fax.mwt2.org:1094//pnfs/uchicago.edu/atlaslocalgroupdisk/rucio/user/schae/77/00/user.schae.15606589._000002.MiniNtuple.root'
p709
asS'user.schae.v13Loose.364164.Sherpa_221_NNPDF30NNLO_Wmunu_MAXHTPTV140_280_BFilter.e5340_s3126_r9364_p3575_MiniNtuple.root'
p710
(lp711
S'root://fax.mwt2.org:1094//pnfs/uchicago.edu/atlaslocalgroupdisk/rucio/user/schae/1d/c4/user.schae.15606484._000001.MiniNtuple.root'
p712
aS'root://fax.mwt2.org:1094//pnfs/uchicago.edu/atlaslocalgroupdisk/rucio/user/schae/b2/3a/user.schae.15606484._000002.MiniNtuple.root'
p713
aS'root://fax.mwt2.org:1094//pnfs/uchicago.edu/atlaslocalgroupdisk/rucio/user/schae/49/0f/user.schae.15606484._000003.MiniNtuple.root'
p714
aS'root://fax.mwt2.org:1094//pnfs/uchicago.edu/atlaslocalgroupdisk/rucio/user/schae/d2/96/user.schae.15606484._000004.MiniNtuple.root'
p715
aS'root://fax.mwt2.org:1094//pnfs/uchicago.edu/atlaslocalgroupdisk/rucio/user/schae/ac/17/user.schae.15606484._000006.MiniNtuple.root'
p716
aS'root://fax.mwt2.org:1094//pnfs/uchicago.edu/atlaslocalgroupdisk/rucio/user/schae/24/99/user.schae.15606484._000007.MiniNtuple.root'
p717
aS'root://fax.mwt2.org:1094//pnfs/uchicago.edu/atlaslocalgroupdisk/rucio/user/schae/ca/50/user.schae.15606484._000010.MiniNtuple.root'
p718
aS'root://fax.mwt2.org:1094//pnfs/uchicago.edu/atlaslocalgroupdisk/rucio/user/schae/bd/f9/user.schae.15606484._000011.MiniNtuple.root'
p719
asS'user.schae.v13Loose.364242.Sherpa_222_NNPDF30NNLO_WWW_3l3v_EW6.e5887_s3126_r9364_p3575_MiniNtuple.root'
p720
(lp721
S'root://fax.mwt2.org:1094//pnfs/uchicago.edu/atlaslocalgroupdisk/rucio/user/schae/db/6f/user.schae.15606648._000001.MiniNtuple.root'
p722
asS'user.schae.v13Loose.364126.Sherpa_221_NNPDF30NNLO_Zee_MAXHTPTV500_1000.e5299_s3126_r9364_p3575_MiniNtuple.root                 '
p723
(lp724
S'root://fax.mwt2.org:1094//pnfs/uchicago.edu/atlaslocalgroupdisk/rucio/user/schae/ee/08/user.schae.15606542._000001.MiniNtuple.root'
p725
aS'root://fax.mwt2.org:1094//pnfs/uchicago.edu/atlaslocalgroupdisk/rucio/user/schae/f3/c5/user.schae.15606542._000002.MiniNtuple.root'
p726
aS'root://fax.mwt2.org:1094//pnfs/uchicago.edu/atlaslocalgroupdisk/rucio/user/schae/11/67/user.schae.15606542._000003.MiniNtuple.root'
p727
aS'root://fax.mwt2.org:1094//pnfs/uchicago.edu/atlaslocalgroupdisk/rucio/user/schae/87/83/user.schae.15606542._000004.MiniNtuple.root'
p728
aS'root://fax.mwt2.org:1094//pnfs/uchicago.edu/atlaslocalgroupdisk/rucio/user/schae/af/cb/user.schae.15606542._000005.MiniNtuple.root'
p729
asS'user.schae.v13Loose.364177.Sherpa_221_NNPDF30NNLO_Wenu_MAXHTPTV140_280_CFilterBVeto.e5340_s3126_r9364_p3575_MiniNtuple.root    '
p730
(lp731
S'root://fax.mwt2.org:1094//pnfs/uchicago.edu/atlaslocalgroupdisk/rucio/user/schae/d5/58/user.schae.15606452._000001.MiniNtuple.root'
p732
aS'root://fax.mwt2.org:1094//pnfs/uchicago.edu/atlaslocalgroupdisk/rucio/user/schae/43/0f/user.schae.15606452._000002.MiniNtuple.root'
p733
aS'root://fax.mwt2.org:1094//pnfs/uchicago.edu/atlaslocalgroupdisk/rucio/user/schae/d4/64/user.schae.15606452._000003.MiniNtuple.root'
p734
asS'user.schae.v13Loose.364148.Sherpa_221_NNPDF30NNLO_Znunu_MAXHTPTV140_280_CVetoBVeto.e5308_s3126_r9364_p3575_MiniNtuple.root     '
p735
(lp736
S'root://fax.mwt2.org:1094//pnfs/uchicago.edu/atlaslocalgroupdisk/rucio/user/schae/8d/bc/user.schae.15606602._000001.MiniNtuple.root'
p737
aS'root://fax.mwt2.org:1094//pnfs/uchicago.edu/atlaslocalgroupdisk/rucio/user/schae/50/b4/user.schae.15606602._000002.MiniNtuple.root'
p738
aS'root://fax.mwt2.org:1094//pnfs/uchicago.edu/atlaslocalgroupdisk/rucio/user/schae/fc/a7/user.schae.15606602._000003.MiniNtuple.root'
p739
aS'root://fax.mwt2.org:1094//pnfs/uchicago.edu/atlaslocalgroupdisk/rucio/user/schae/75/d1/user.schae.15606602._000004.MiniNtuple.root'
p740
asS'user.schae.v13Loose.308276.PowhegPy8EG_NNPDF30_AZNLOCTEQ6L1_VBFH125_ZZ4nu_MET125.e6126_s3126_r9364_p3575_MiniNtuple.root       '
p741
(lp742
S'root://fax.mwt2.org:1094//pnfs/uchicago.edu/atlaslocalgroupdisk/rucio/user/schae/3a/1c/user.schae.15606403._000001.MiniNtuple.root'
p743
asS'user.schae.v13Loose.364104.Sherpa_221_NNPDF30NNLO_Zmumu_MAXHTPTV70_140_CFilterBVeto.e5271_s3126_r9364_p3575_MiniNtuple.root    '
p744
(lp745
S'root://fax.mwt2.org:1094//pnfs/uchicago.edu/atlaslocalgroupdisk/rucio/user/schae/99/ec/user.schae.15606553._000001.MiniNtuple.root'
p746
aS'root://fax.mwt2.org:1094//pnfs/uchicago.edu/atlaslocalgroupdisk/rucio/user/schae/66/d8/user.schae.15606553._000002.MiniNtuple.root'
p747
asS'user.schae.v13Loose.364249.Sherpa_222_NNPDF30NNLO_ZZZ_2l4v_EW6.e5887_s3126_r9364_p3575_MiniNtuple.root'
p748
(lp749
S'root://fax.mwt2.org:1094//pnfs/uchicago.edu/atlaslocalgroupdisk/rucio/user/schae/6e/ab/user.schae.15606655._000001.MiniNtuple.root'
p750
asS'user.schae.v13Loose.364105.Sherpa_221_NNPDF30NNLO_Zmumu_MAXHTPTV70_140_BFilter.e5271_s3126_r9364_p3575_MiniNtuple.root         '
p751
(lp752
S'root://fax.mwt2.org:1094//pnfs/uchicago.edu/atlaslocalgroupdisk/rucio/user/schae/cd/bc/user.schae.15606555._000001.MiniNtuple.root'
p753
aS'root://fax.mwt2.org:1094//pnfs/uchicago.edu/atlaslocalgroupdisk/rucio/user/schae/be/bf/user.schae.15606555._000002.MiniNtuple.root'
p754
asS'user.schae.v13Loose.361030.Pythia8EvtGen_A14NNPDF23LO_jetjet_JZ10W.e3569_s3126_r9364_p3575_MiniNtuple.root                     '
p755
(lp756
S'root://fax.mwt2.org:1094//pnfs/uchicago.edu/atlaslocalgroupdisk/rucio/user/schae/9f/6b/user.schae.15606611._000001.MiniNtuple.root'
p757
aS'root://fax.mwt2.org:1094//pnfs/uchicago.edu/atlaslocalgroupdisk/rucio/user/schae/cf/39/user.schae.15606611._000002.MiniNtuple.root'
p758
aS'root://fax.mwt2.org:1094//pnfs/uchicago.edu/atlaslocalgroupdisk/rucio/user/schae/e9/6b/user.schae.15606611._000003.MiniNtuple.root'
p759
aS'root://fax.mwt2.org:1094//pnfs/uchicago.edu/atlaslocalgroupdisk/rucio/user/schae/fb/dc/user.schae.15606611._000004.MiniNtuple.root'
p760
aS'root://fax.mwt2.org:1094//pnfs/uchicago.edu/atlaslocalgroupdisk/rucio/user/schae/de/c7/user.schae.15606611._000005.MiniNtuple.root'
p761
asS'user.schae.v13Loose.308095.Sherpa_221_NNPDF30NNLO_Znunu2jets_Min_N_TChannel.e5767_s3126_r9364_p3575_MiniNtuple.root            '
p762
(lp763
S'root://fax.mwt2.org:1094//pnfs/uchicago.edu/atlaslocalgroupdisk/rucio/user/schae/2f/39/user.schae.15606432._000001.MiniNtuple.root'
p764
asS'user.schae.v13Loose.364123.Sherpa_221_NNPDF30NNLO_Zee_MAXHTPTV280_500_CVetoBVeto.e5299_s3126_r9364_p3575_MiniNtuple.root       '
p765
(lp766
S'root://fax.mwt2.org:1094//pnfs/uchicago.edu/atlaslocalgroupdisk/rucio/user/schae/d5/dc/user.schae.15606537._000001.MiniNtuple.root'
p767
aS'root://fax.mwt2.org:1094//pnfs/uchicago.edu/atlaslocalgroupdisk/rucio/user/schae/e7/1b/user.schae.15606537._000002.MiniNtuple.root'
p768
aS'root://fax.mwt2.org:1094//pnfs/uchicago.edu/atlaslocalgroupdisk/rucio/user/schae/16/00/user.schae.15606537._000003.MiniNtuple.root'
p769
asS'user.schae.v13Loose.364117.Sherpa_221_NNPDF30NNLO_Zee_MAXHTPTV70_140_CVetoBVeto.e5299_s3126_r9364_p3575_MiniNtuple.root        '
p770
(lp771
S'root://fax.mwt2.org:1094//pnfs/uchicago.edu/atlaslocalgroupdisk/rucio/user/schae/0e/e3/user.schae.15606526._000001.MiniNtuple.root'
p772
aS'root://fax.mwt2.org:1094//pnfs/uchicago.edu/atlaslocalgroupdisk/rucio/user/schae/8c/f7/user.schae.15606526._000002.MiniNtuple.root'
p773
aS'root://fax.mwt2.org:1094//pnfs/uchicago.edu/atlaslocalgroupdisk/rucio/user/schae/02/06/user.schae.15606526._000003.MiniNtuple.root'
p774
aS'root://fax.mwt2.org:1094//pnfs/uchicago.edu/atlaslocalgroupdisk/rucio/user/schae/bf/fa/user.schae.15606526._000004.MiniNtuple.root'
p775
aS'root://fax.mwt2.org:1094//pnfs/uchicago.edu/atlaslocalgroupdisk/rucio/user/schae/b1/f4/user.schae.15606526._000005.MiniNtuple.root'
p776
asS'user.schae.v13Loose.364194.Sherpa_221_NNPDF30NNLO_Wtaunu_MAXHTPTV280_500_CFilterBVeto.e5340_s3126_r9364_p3575_MiniNtuple.root  '
p777
(lp778
S'root://fax.mwt2.org:1094//pnfs/uchicago.edu/atlaslocalgroupdisk/rucio/user/schae/3b/e0/user.schae.15606513._000001.MiniNtuple.root'
p779
aS'root://fax.mwt2.org:1094//pnfs/uchicago.edu/atlaslocalgroupdisk/rucio/user/schae/d4/5d/user.schae.15606513._000002.MiniNtuple.root'
p780
aS'root://fax.mwt2.org:1094//pnfs/uchicago.edu/atlaslocalgroupdisk/rucio/user/schae/bb/66/user.schae.15606513._000003.MiniNtuple.root'
p781
as.