(dp0
S'user.schae.v15Loose.364182.Sherpa_221_NNPDF30NNLO_Wenu_MAXHTPTV500_1000.e5340_s3126_r9364_p3575_MiniNtuple.root'
p1
(lp2
S'root://fax.mwt2.org:1094//pnfs/uchicago.edu/atlaslocalgroupdisk/rucio/user/schae/99/23/user.schae.15675982._000001.MiniNtuple.root'
p3
aS'root://fax.mwt2.org:1094//pnfs/uchicago.edu/atlaslocalgroupdisk/rucio/user/schae/6c/9b/user.schae.15675982._000002.MiniNtuple.root'
p4
aS'root://fax.mwt2.org:1094//pnfs/uchicago.edu/atlaslocalgroupdisk/rucio/user/schae/8d/6c/user.schae.15675982._000003.MiniNtuple.root'
p5
aS'root://fax.mwt2.org:1094//pnfs/uchicago.edu/atlaslocalgroupdisk/rucio/user/schae/74/53/user.schae.15675982._000005.MiniNtuple.root'
p6
asS'user.schae.v15Loose.364111.Sherpa_221_NNPDF30NNLO_Zmumu_MAXHTPTV280_500_BFilter.e5271_s3126_r9364_p3575_MiniNtuple.root'
p7
(lp8
S'root://fax.mwt2.org:1094//pnfs/uchicago.edu/atlaslocalgroupdisk/rucio/user/schae/ec/f5/user.schae.15676420._000001.MiniNtuple.root'
p9
aS'root://fax.mwt2.org:1094//pnfs/uchicago.edu/atlaslocalgroupdisk/rucio/user/schae/3b/02/user.schae.15676420._000002.MiniNtuple.root'
p10
asS'user.schae.v15Loose.364174.Sherpa_221_NNPDF30NNLO_Wenu_MAXHTPTV70_140_CFilterBVeto.e5340_s3126_r9364_p3575_MiniNtuple.root'
p11
(lp12
S'root://fax.mwt2.org:1094//pnfs/uchicago.edu/atlaslocalgroupdisk/rucio/user/schae/6e/38/user.schae.15675918._000001.MiniNtuple.root'
p13
aS'root://fax.mwt2.org:1094//pnfs/uchicago.edu/atlaslocalgroupdisk/rucio/user/schae/02/e7/user.schae.15675918._000002.MiniNtuple.root'
p14
asS'user.schae.v15Loose.364152.Sherpa_221_NNPDF30NNLO_Znunu_MAXHTPTV280_500_CFilterBVeto.e5308_s3126_r9364_p3575_MiniNtuple.root'
p15
(lp16
S'root://fax.mwt2.org:1094//pnfs/uchicago.edu/atlaslocalgroupdisk/rucio/user/schae/9b/08/user.schae.15676677._000001.MiniNtuple.root'
p17
aS'root://fax.mwt2.org:1094//pnfs/uchicago.edu/atlaslocalgroupdisk/rucio/user/schae/2f/32/user.schae.15676677._000002.MiniNtuple.root'
p18
asS'user.schae.v15Loose.363355.Sherpa_221_NNPDF30NNLO_ZqqZvv.e5525_s3126_r9364_p3575_MiniNtuple.root'
p19
(lp20
S'root://fax.mwt2.org:1094//pnfs/uchicago.edu/atlaslocalgroupdisk/rucio/user/schae/24/4d/user.schae.15675796._000001.MiniNtuple.root'
p21
aS'root://fax.mwt2.org:1094//pnfs/uchicago.edu/atlaslocalgroupdisk/rucio/user/schae/88/f1/user.schae.15675796._000002.MiniNtuple.root'
p22
asS'user.schae.v14Loose.00302829.physics_Main.r9264_p3083_p3576_MiniNtuple.root'
p23
(lp24
S'/share/t3data2/schae/v14Loose/user.schae.v14Loose.00302829.physics_Main.r9264_p3083_p3576_MiniNtuple.root/user.schae.15633820._000001.MiniNtuple.root'
p25
aS'/share/t3data2/schae/v14Loose/user.schae.v14Loose.00302829.physics_Main.r9264_p3083_p3576_MiniNtuple.root/user.schae.15633820._000002.MiniNtuple.root'
p26
aS'/share/t3data2/schae/v14Loose/user.schae.v14Loose.00302829.physics_Main.r9264_p3083_p3576_MiniNtuple.root/user.schae.15633820._000003.MiniNtuple.root'
p27
asS'user.schae.v15Loose.364143.Sherpa_221_NNPDF30NNLO_Znunu_MAXHTPTV0_70_CFilterBVeto.e5308_s3126_r9364_p3575_MiniNtuple.root'
p28
(lp29
S'root://fax.mwt2.org:1094//pnfs/uchicago.edu/atlaslocalgroupdisk/rucio/user/schae/22/d6/user.schae.15676571._000001.MiniNtuple.root'
p30
asS'user.schae.v15Loose.364141.Sherpa_221_NNPDF30NNLO_Ztautau_MAXHTPTV1000_E_CMS.e5307_s3126_r9364_p3575_MiniNtuple.root'
p31
(lp32
S'root://fax.mwt2.org:1094//pnfs/uchicago.edu/atlaslocalgroupdisk/rucio/user/schae/f0/74/user.schae.15676556._000001.MiniNtuple.root'
p33
aS'root://fax.mwt2.org:1094//pnfs/uchicago.edu/atlaslocalgroupdisk/rucio/user/schae/88/6f/user.schae.15676556._000002.MiniNtuple.root'
p34
asS'user.schae.v15Loose.364148.Sherpa_221_NNPDF30NNLO_Znunu_MAXHTPTV140_280_CVetoBVeto.e5308_s3126_r9364_p3575_MiniNtuple.root'
p35
(lp36
S'root://fax.mwt2.org:1094//pnfs/uchicago.edu/atlaslocalgroupdisk/rucio/user/schae/81/5d/user.schae.15676614._000001.MiniNtuple.root'
p37
aS'root://fax.mwt2.org:1094//pnfs/uchicago.edu/atlaslocalgroupdisk/rucio/user/schae/62/14/user.schae.15676614._000002.MiniNtuple.root'
p38
aS'root://fax.mwt2.org:1094//pnfs/uchicago.edu/atlaslocalgroupdisk/rucio/user/schae/e0/9b/user.schae.15676614._000003.MiniNtuple.root'
p39
aS'root://fax.mwt2.org:1094//pnfs/uchicago.edu/atlaslocalgroupdisk/rucio/user/schae/86/18/user.schae.15676614._000004.MiniNtuple.root'
p40
asS'user.schae.v15Loose.308092.Sherpa_221_NNPDF30NNLO_Zee2jets_Min_N_TChannel.e5767_s3126_r9364_p3575_MiniNtuple.root'
p41
(lp42
S'root://fax.mwt2.org:1094//pnfs/uchicago.edu/atlaslocalgroupdisk/rucio/user/schae/02/75/user.schae.15675842._000001.MiniNtuple.root'
p43
asS'user.schae.v15Loose.364129.Sherpa_221_NNPDF30NNLO_Ztautau_MAXHTPTV0_70_CFilterBVeto.e5307_s3126_r9364_p3575_MiniNtuple.root'
p44
(lp45
S'root://fax.mwt2.org:1094//pnfs/uchicago.edu/atlaslocalgroupdisk/rucio/user/schae/05/b9/user.schae.15676466._000001.MiniNtuple.root'
p46
aS'root://fax.mwt2.org:1094//pnfs/uchicago.edu/atlaslocalgroupdisk/rucio/user/schae/c0/ac/user.schae.15676466._000002.MiniNtuple.root'
p47
asS'user.schae.v15Loose.364192.Sherpa_221_NNPDF30NNLO_Wtaunu_MAXHTPTV140_280_BFilter.e5340_s3126_r9364_p3575_MiniNtuple.root'
p48
(lp49
S'root://fax.mwt2.org:1094//pnfs/uchicago.edu/atlaslocalgroupdisk/rucio/user/schae/84/b1/user.schae.15676147._000001.MiniNtuple.root.2'
p50
aS'root://fax.mwt2.org:1094//pnfs/uchicago.edu/atlaslocalgroupdisk/rucio/user/schae/ca/d0/user.schae.15676147._000002.MiniNtuple.root'
p51
aS'root://fax.mwt2.org:1094//pnfs/uchicago.edu/atlaslocalgroupdisk/rucio/user/schae/53/38/user.schae.15676147._000005.MiniNtuple.root'
p52
aS'root://fax.mwt2.org:1094//pnfs/uchicago.edu/atlaslocalgroupdisk/rucio/user/schae/eb/fa/user.schae.15676147._000006.MiniNtuple.root'
p53
aS'root://fax.mwt2.org:1094//pnfs/uchicago.edu/atlaslocalgroupdisk/rucio/user/schae/1e/0d/user.schae.15676147._000007.MiniNtuple.root'
p54
aS'root://fax.mwt2.org:1094//pnfs/uchicago.edu/atlaslocalgroupdisk/rucio/user/schae/86/ae/user.schae.15676147._000008.MiniNtuple.root'
p55
aS'root://fax.mwt2.org:1094//pnfs/uchicago.edu/atlaslocalgroupdisk/rucio/user/schae/07/a0/user.schae.15676147._000009.MiniNtuple.root'
p56
aS'root://fax.mwt2.org:1094//pnfs/uchicago.edu/atlaslocalgroupdisk/rucio/user/schae/67/69/user.schae.15676147._000010.MiniNtuple.root'
p57
asS'user.schae.v15Loose.364181.Sherpa_221_NNPDF30NNLO_Wenu_MAXHTPTV280_500_BFilter.e5340_s3126_r9364_p3575_MiniNtuple.root'
p58
(lp59
S'root://fax.mwt2.org:1094//pnfs/uchicago.edu/atlaslocalgroupdisk/rucio/user/schae/0f/3a/user.schae.15675972._000001.MiniNtuple.root'
p60
aS'root://fax.mwt2.org:1094//pnfs/uchicago.edu/atlaslocalgroupdisk/rucio/user/schae/db/ae/user.schae.15675972._000002.MiniNtuple.root'
p61
aS'root://fax.mwt2.org:1094//pnfs/uchicago.edu/atlaslocalgroupdisk/rucio/user/schae/d1/9e/user.schae.15675972._000003.MiniNtuple.root'
p62
asS'user.schae.v15Loose.363359.Sherpa_221_NNPDF30NNLO_WpqqWmlv.e5583_s3126_r9364_p3575_MiniNtuple.root'
p63
(lp64
S'root://fax.mwt2.org:1094//pnfs/uchicago.edu/atlaslocalgroupdisk/rucio/user/schae/2c/48/user.schae.15675822._000001.MiniNtuple.root'
p65
aS'root://fax.mwt2.org:1094//pnfs/uchicago.edu/atlaslocalgroupdisk/rucio/user/schae/bd/f3/user.schae.15675822._000002.MiniNtuple.root'
p66
asS'user.schae.v15Loose.364115.Sherpa_221_NNPDF30NNLO_Zee_MAXHTPTV0_70_CFilterBVeto.e5299_s3126_r9364_p3575_MiniNtuple.root'
p67
(lp68
S'root://fax.mwt2.org:1094//pnfs/uchicago.edu/atlaslocalgroupdisk/rucio/user/schae/52/ab/user.schae.15676196._000001.MiniNtuple.root'
p69
aS'root://fax.mwt2.org:1094//pnfs/uchicago.edu/atlaslocalgroupdisk/rucio/user/schae/3a/ac/user.schae.15676196._000002.MiniNtuple.root'
p70
asS'user.schae.v15Loose.363358.Sherpa_221_NNPDF30NNLO_WqqZll.e5525_s3126_r9364_p3575_MiniNtuple.root'
p71
(lp72
S'root://fax.mwt2.org:1094//pnfs/uchicago.edu/atlaslocalgroupdisk/rucio/user/schae/a7/85/user.schae.15675815._000001.MiniNtuple.root'
p73
aS'root://fax.mwt2.org:1094//pnfs/uchicago.edu/atlaslocalgroupdisk/rucio/user/schae/95/9b/user.schae.15675815._000002.MiniNtuple.root'
p74
asS'user.schae.v15Loose.308072.PowhegPythia8EvtGen_CT10_AZNLO_ZH125J_MINLO_jj_ZZinv.e5831_s3126_r9364_p3575_MiniNtuple.root'
p75
(lp76
S'root://fax.mwt2.org:1094//pnfs/uchicago.edu/atlaslocalgroupdisk/rucio/user/schae/54/58/user.schae.15675789._000001.MiniNtuple.root'
p77
asS'user.schae.v15Loose.364131.Sherpa_221_NNPDF30NNLO_Ztautau_MAXHTPTV70_140_CVetoBVeto.e5307_s3126_r9364_p3575_MiniNtuple.root'
p78
(lp79
S'root://fax.mwt2.org:1094//pnfs/uchicago.edu/atlaslocalgroupdisk/rucio/user/schae/bb/59/user.schae.15676481._000001.MiniNtuple.root'
p80
aS'root://fax.mwt2.org:1094//pnfs/uchicago.edu/atlaslocalgroupdisk/rucio/user/schae/5c/ed/user.schae.15676481._000004.MiniNtuple.root'
p81
aS'root://fax.mwt2.org:1094//pnfs/uchicago.edu/atlaslocalgroupdisk/rucio/user/schae/a4/70/user.schae.15676481._000005.MiniNtuple.root'
p82
asS'user.schae.v15Loose.364153.Sherpa_221_NNPDF30NNLO_Znunu_MAXHTPTV280_500_BFilter.e5308_s3126_r9364_p3575_MiniNtuple.root'
p83
(lp84
S'root://fax.mwt2.org:1094//pnfs/uchicago.edu/atlaslocalgroupdisk/rucio/user/schae/70/4c/user.schae.15676695._000001.MiniNtuple.root'
p85
aS'root://fax.mwt2.org:1094//pnfs/uchicago.edu/atlaslocalgroupdisk/rucio/user/schae/4e/d4/user.schae.15676695._000002.MiniNtuple.root'
p86
aS'root://fax.mwt2.org:1094//pnfs/uchicago.edu/atlaslocalgroupdisk/rucio/user/schae/96/c0/user.schae.15676695._000003.MiniNtuple.root'
p87
aS'root://fax.mwt2.org:1094//pnfs/uchicago.edu/atlaslocalgroupdisk/rucio/user/schae/8d/2a/user.schae.15676695._000004.MiniNtuple.root'
p88
asS'user.schae.v15Loose.364126.Sherpa_221_NNPDF30NNLO_Zee_MAXHTPTV500_1000.e5299_s3126_r9364_p3575_MiniNtuple.root'
p89
(lp90
S'root://fax.mwt2.org:1094//pnfs/uchicago.edu/atlaslocalgroupdisk/rucio/user/schae/9f/d9/user.schae.15676300._000001.MiniNtuple.root'
p91
aS'root://fax.mwt2.org:1094//pnfs/uchicago.edu/atlaslocalgroupdisk/rucio/user/schae/f3/ed/user.schae.15676300._000002.MiniNtuple.root'
p92
aS'root://fax.mwt2.org:1094//pnfs/uchicago.edu/atlaslocalgroupdisk/rucio/user/schae/26/60/user.schae.15676300._000003.MiniNtuple.root'
p93
asS'user.schae.v15Loose.364133.Sherpa_221_NNPDF30NNLO_Ztautau_MAXHTPTV70_140_BFilter.e5307_s3126_r9364_p3575_MiniNtuple.root'
p94
(lp95
S'root://fax.mwt2.org:1094//pnfs/uchicago.edu/atlaslocalgroupdisk/rucio/user/schae/06/8f/user.schae.15676495._000001.MiniNtuple.root'
p96
aS'root://fax.mwt2.org:1094//pnfs/uchicago.edu/atlaslocalgroupdisk/rucio/user/schae/a0/f4/user.schae.15676495._000002.MiniNtuple.root'
p97
asS'user.schae.v15Loose.364189.Sherpa_221_NNPDF30NNLO_Wtaunu_MAXHTPTV70_140_BFilter.e5340_s3126_r9364_p3575_MiniNtuple.root'
p98
(lp99
S'root://fax.mwt2.org:1094//pnfs/uchicago.edu/atlaslocalgroupdisk/rucio/user/schae/6f/24/user.schae.15676132._000001.MiniNtuple.root'
p100
aS'root://fax.mwt2.org:1094//pnfs/uchicago.edu/atlaslocalgroupdisk/rucio/user/schae/07/8f/user.schae.15676132._000002.MiniNtuple.root'
p101
asS'user.schae.v15Loose.364123.Sherpa_221_NNPDF30NNLO_Zee_MAXHTPTV280_500_CVetoBVeto.e5299_s3126_r9364_p3575_MiniNtuple.root'
p102
(lp103
S'root://fax.mwt2.org:1094//pnfs/uchicago.edu/atlaslocalgroupdisk/rucio/user/schae/9d/c6/user.schae.15676270._000001.MiniNtuple.root'
p104
aS'root://fax.mwt2.org:1094//pnfs/uchicago.edu/atlaslocalgroupdisk/rucio/user/schae/a1/7e/user.schae.15676270._000002.MiniNtuple.root'
p105
asS'user.schae.v15Loose.364147.Sherpa_221_NNPDF30NNLO_Znunu_MAXHTPTV70_140_BFilter.e5308_s3126_r9364_p3575_MiniNtuple.root'
p106
(lp107
S'root://fax.mwt2.org:1094//pnfs/uchicago.edu/atlaslocalgroupdisk/rucio/user/schae/17/b7/user.schae.15676601._000001.MiniNtuple.root'
p108
aS'root://fax.mwt2.org:1094//pnfs/uchicago.edu/atlaslocalgroupdisk/rucio/user/schae/4e/72/user.schae.15676601._000002.MiniNtuple.root'
p109
asS'user.schae.v15Loose.364163.Sherpa_221_NNPDF30NNLO_Wmunu_MAXHTPTV140_280_CFilterBVeto.e5340_s3126_r9364_p3575_MiniNtuple.root'
p110
(lp111
S'root://fax.mwt2.org:1094//pnfs/uchicago.edu/atlaslocalgroupdisk/rucio/user/schae/21/e5/user.schae.15676048._000001.MiniNtuple.root'
p112
aS'root://fax.mwt2.org:1094//pnfs/uchicago.edu/atlaslocalgroupdisk/rucio/user/schae/7d/53/user.schae.15676048._000002.MiniNtuple.root'
p113
aS'root://fax.mwt2.org:1094//pnfs/uchicago.edu/atlaslocalgroupdisk/rucio/user/schae/94/5f/user.schae.15676048._000003.MiniNtuple.root'
p114
asS'user.schae.v15Loose.364155.Sherpa_221_NNPDF30NNLO_Znunu_MAXHTPTV1000_E_CMS.e5308_s3126_r9364_p3575_MiniNtuple.root'
p115
(lp116
S'root://fax.mwt2.org:1094//pnfs/uchicago.edu/atlaslocalgroupdisk/rucio/user/schae/1a/40/user.schae.15676713._000001.MiniNtuple.root'
p117
aS'root://fax.mwt2.org:1094//pnfs/uchicago.edu/atlaslocalgroupdisk/rucio/user/schae/bd/87/user.schae.15676713._000002.MiniNtuple.root'
p118
asS'user.schae.v15Loose.410012.PowhegPythiaEvtGen_P2012_singletop_tchan_lept_antitop.e3824_s3126_r9364_p3575_MiniNtuple.root'
p119
(lp120
S'root://fax.mwt2.org:1094//pnfs/uchicago.edu/atlaslocalgroupdisk/rucio/user/schae/bd/ec/user.schae.15676738._000001.MiniNtuple.root'
p121
aS'root://fax.mwt2.org:1094//pnfs/uchicago.edu/atlaslocalgroupdisk/rucio/user/schae/c6/43/user.schae.15676738._000002.MiniNtuple.root'
p122
asS'user.schae.v15Loose.364100.Sherpa_221_NNPDF30NNLO_Zmumu_MAXHTPTV0_70_CVetoBVeto.e5271_s3126_r9364_p3575_MiniNtuple.root'
p123
(lp124
S'root://fax.mwt2.org:1094//pnfs/uchicago.edu/atlaslocalgroupdisk/rucio/user/schae/83/70/user.schae.15676316._000001.MiniNtuple.root'
p125
asS'user.schae.v15Loose.364167.Sherpa_221_NNPDF30NNLO_Wmunu_MAXHTPTV280_500_BFilter.e5340_s3126_r9364_p3575_MiniNtuple.root'
p126
(lp127
S'root://fax.mwt2.org:1094//pnfs/uchicago.edu/atlaslocalgroupdisk/rucio/user/schae/40/fc/user.schae.15676073._000001.MiniNtuple.root'
p128
aS'root://fax.mwt2.org:1094//pnfs/uchicago.edu/atlaslocalgroupdisk/rucio/user/schae/7c/05/user.schae.15676073._000002.MiniNtuple.root'
p129
asS'user.schae.v15Loose.364183.Sherpa_221_NNPDF30NNLO_Wenu_MAXHTPTV1000_E_CMS.e5340_s3126_r9364_p3575_MiniNtuple.root'
p130
(lp131
S'/share/t3data2/schae/v14Loose/user.schae.v15Loose.364183.Sherpa_221_NNPDF30NNLO_Wenu_MAXHTPTV1000_E_CMS.e5340_s3126_r9364_p3575_MiniNtuple.root/user.schae.15675988._000001.MiniNtuple.root'
p132
aS'/share/t3data2/schae/v14Loose/user.schae.v15Loose.364183.Sherpa_221_NNPDF30NNLO_Wenu_MAXHTPTV1000_E_CMS.e5340_s3126_r9364_p3575_MiniNtuple.root/user.schae.15675988._000002.MiniNtuple.root'
p133
aS'/share/t3data2/schae/v14Loose/user.schae.v15Loose.364183.Sherpa_221_NNPDF30NNLO_Wenu_MAXHTPTV1000_E_CMS.e5340_s3126_r9364_p3575_MiniNtuple.root/user.schae.15675988._000003.MiniNtuple.root'
p134
aS'/share/t3data2/schae/v14Loose/user.schae.v15Loose.364183.Sherpa_221_NNPDF30NNLO_Wenu_MAXHTPTV1000_E_CMS.e5340_s3126_r9364_p3575_MiniNtuple.root/user.schae.15675988._000004.MiniNtuple.root'
p135
asS'user.schae.v15Loose.364108.Sherpa_221_NNPDF30NNLO_Zmumu_MAXHTPTV140_280_BFilter.e5271_s3126_r9364_p3575_MiniNtuple.root'
p136
(lp137
S'root://fax.mwt2.org:1094//pnfs/uchicago.edu/atlaslocalgroupdisk/rucio/user/schae/ae/99/user.schae.15676395._000001.MiniNtuple.root'
p138
aS'root://fax.mwt2.org:1094//pnfs/uchicago.edu/atlaslocalgroupdisk/rucio/user/schae/8b/41/user.schae.15676395._000002.MiniNtuple.root'
p139
aS'root://fax.mwt2.org:1094//pnfs/uchicago.edu/atlaslocalgroupdisk/rucio/user/schae/2d/10/user.schae.15676395._000003.MiniNtuple.root'
p140
asS'user.schae.v15Loose.364112.Sherpa_221_NNPDF30NNLO_Zmumu_MAXHTPTV500_1000.e5271_s3126_r9364_p3575_MiniNtuple.root'
p141
(lp142
S'root://fax.mwt2.org:1094//pnfs/uchicago.edu/atlaslocalgroupdisk/rucio/user/schae/38/4e/user.schae.15676428._000001.MiniNtuple.root'
p143
aS'root://fax.mwt2.org:1094//pnfs/uchicago.edu/atlaslocalgroupdisk/rucio/user/schae/87/d7/user.schae.15676428._000002.MiniNtuple.root'
p144
aS'root://fax.mwt2.org:1094//pnfs/uchicago.edu/atlaslocalgroupdisk/rucio/user/schae/bf/e3/user.schae.15676428._000003.MiniNtuple.root'
p145
asS'user.schae.v14Loose.00302380.physics_Main.r9264_p3083_p3576_MiniNtuple.root'
p146
(lp147
S'/share/t3data2/schae/v14Loose/user.schae.v14Loose.00302380.physics_Main.r9264_p3083_p3576_MiniNtuple.root/user.schae.15634372._000001.MiniNtuple.root'
p148
aS'/share/t3data2/schae/v14Loose/user.schae.v14Loose.00302380.physics_Main.r9264_p3083_p3576_MiniNtuple.root/user.schae.15634372._000002.MiniNtuple.root'
p149
asS'user.schae.v15Loose.308096.Sherpa_221_NNPDF30NNLO_Wenu2jets_Min_N_TChannel.e5789_s3126_r9364_p3575_MiniNtuple.root'
p150
(lp151
S'root://fax.mwt2.org:1094//pnfs/uchicago.edu/atlaslocalgroupdisk/rucio/user/schae/11/53/user.schae.15675872._000001.MiniNtuple.root'
p152
asS'user.schae.v15Loose.364150.Sherpa_221_NNPDF30NNLO_Znunu_MAXHTPTV140_280_BFilter.e5308_s3126_r9364_p3575_MiniNtuple.root'
p153
(lp154
S'root://fax.mwt2.org:1094//pnfs/uchicago.edu/atlaslocalgroupdisk/rucio/user/schae/68/79/user.schae.15676651._000001.MiniNtuple.root'
p155
aS'root://fax.mwt2.org:1094//pnfs/uchicago.edu/atlaslocalgroupdisk/rucio/user/schae/d9/09/user.schae.15676651._000002.MiniNtuple.root'
p156
aS'root://fax.mwt2.org:1094//pnfs/uchicago.edu/atlaslocalgroupdisk/rucio/user/schae/68/f1/user.schae.15676651._000003.MiniNtuple.root'
p157
aS'root://fax.mwt2.org:1094//pnfs/uchicago.edu/atlaslocalgroupdisk/rucio/user/schae/5f/24/user.schae.15676651._000004.MiniNtuple.root'
p158
aS'root://fax.mwt2.org:1094//pnfs/uchicago.edu/atlaslocalgroupdisk/rucio/user/schae/4d/22/user.schae.15676651._000005.MiniNtuple.root'
p159
asS'user.schae.v15Loose.364102.Sherpa_221_NNPDF30NNLO_Zmumu_MAXHTPTV0_70_BFilter.e5271_s3126_r9364_p3575_MiniNtuple.root'
p160
(lp161
S'root://fax.mwt2.org:1094//pnfs/uchicago.edu/atlaslocalgroupdisk/rucio/user/schae/8f/49/user.schae.15676332._000001.MiniNtuple.root'
p162
aS'root://fax.mwt2.org:1094//pnfs/uchicago.edu/atlaslocalgroupdisk/rucio/user/schae/cf/cd/user.schae.15676332._000002.MiniNtuple.root'
p163
asS'user.schae.v15Loose.363489.Sherpa_221_NNPDF30NNLO_WlvZqq.e5525_s3126_r9364_p3575_MiniNtuple.root'
p164
(lp165
S'root://fax.mwt2.org:1094//pnfs/uchicago.edu/atlaslocalgroupdisk/rucio/user/schae/fc/73/user.schae.15675836._000001.MiniNtuple.root'
p166
aS'root://fax.mwt2.org:1094//pnfs/uchicago.edu/atlaslocalgroupdisk/rucio/user/schae/0f/35/user.schae.15675836._000002.MiniNtuple.root'
p167
asS'user.schae.v15Loose.364122.Sherpa_221_NNPDF30NNLO_Zee_MAXHTPTV140_280_BFilter.e5299_s3126_r9364_p3575_MiniNtuple.root'
p168
(lp169
S'root://fax.mwt2.org:1094//pnfs/uchicago.edu/atlaslocalgroupdisk/rucio/user/schae/58/12/user.schae.15676260._000001.MiniNtuple.root'
p170
aS'root://fax.mwt2.org:1094//pnfs/uchicago.edu/atlaslocalgroupdisk/rucio/user/schae/c5/4c/user.schae.15676260._000002.MiniNtuple.root'
p171
aS'root://fax.mwt2.org:1094//pnfs/uchicago.edu/atlaslocalgroupdisk/rucio/user/schae/a9/76/user.schae.15676260._000003.MiniNtuple.root'
p172
aS'root://fax.mwt2.org:1094//pnfs/uchicago.edu/atlaslocalgroupdisk/rucio/user/schae/10/a9/user.schae.15676260._000004.MiniNtuple.root'
p173
asS'user.schae.v15Loose.364162.Sherpa_221_NNPDF30NNLO_Wmunu_MAXHTPTV140_280_CVetoBVeto.e5340_s3126_r9364_p3575_MiniNtuple.root'
p174
(lp175
S'root://fax.mwt2.org:1094//pnfs/uchicago.edu/atlaslocalgroupdisk/rucio/user/schae/6d/08/user.schae.15676041._000001.MiniNtuple.root'
p176
aS'root://fax.mwt2.org:1094//pnfs/uchicago.edu/atlaslocalgroupdisk/rucio/user/schae/2b/26/user.schae.15676041._000002.MiniNtuple.root'
p177
aS'root://fax.mwt2.org:1094//pnfs/uchicago.edu/atlaslocalgroupdisk/rucio/user/schae/ac/af/user.schae.15676041._000003.MiniNtuple.root'
p178
asS'user.schae.v15Loose.361511.MadGraphPythia8EvtGen_A14NNPDF23LO_Ztautau_Np1.e3898_s3126_r9364_p3575_MiniNtuple.root'
p179
(lp180
S'root://fax.mwt2.org:1094//pnfs/uchicago.edu/atlaslocalgroupdisk/rucio/user/schae/09/6b/user.schae.15686088._000001.MiniNtuple.root'
p181
aS'root://fax.mwt2.org:1094//pnfs/uchicago.edu/atlaslocalgroupdisk/rucio/user/schae/33/b6/user.schae.15686088._000002.MiniNtuple.root'
p182
asS'user.schae.v15Loose.308276.PowhegPy8EG_NNPDF30_AZNLOCTEQ6L1_VBFH125_ZZ4nu_MET125.e6126_s3126_r9364_p3575_MiniNtuple.root'
p183
(lp184
S'root://fax.mwt2.org:1094//pnfs/uchicago.edu/atlaslocalgroupdisk/rucio/user/schae/2a/fe/user.schae.15675763._000001.MiniNtuple.root'
p185
asS'user.schae.v15Loose.364197.Sherpa_221_NNPDF30NNLO_Wtaunu_MAXHTPTV1000_E_CMS.e5340_s3126_r9364_p3575_MiniNtuple.root'
p186
(lp187
S'root://fax.mwt2.org:1094//pnfs/uchicago.edu/atlaslocalgroupdisk/rucio/user/schae/6e/34/user.schae.15676183._000001.MiniNtuple.root'
p188
aS'root://fax.mwt2.org:1094//pnfs/uchicago.edu/atlaslocalgroupdisk/rucio/user/schae/26/3c/user.schae.15676183._000002.MiniNtuple.root'
p189
aS'root://fax.mwt2.org:1094//pnfs/uchicago.edu/atlaslocalgroupdisk/rucio/user/schae/e6/21/user.schae.15676183._000003.MiniNtuple.root'
p190
asS'user.schae.v15Loose.364196.Sherpa_221_NNPDF30NNLO_Wtaunu_MAXHTPTV500_1000.e5340_s3126_r9364_p3575_MiniNtuple.root'
p191
(lp192
S'root://fax.mwt2.org:1094//pnfs/uchicago.edu/atlaslocalgroupdisk/rucio/user/schae/28/99/user.schae.15676178._000001.MiniNtuple.root'
p193
aS'root://fax.mwt2.org:1094//pnfs/uchicago.edu/atlaslocalgroupdisk/rucio/user/schae/f5/08/user.schae.15676178._000002.MiniNtuple.root'
p194
aS'root://fax.mwt2.org:1094//pnfs/uchicago.edu/atlaslocalgroupdisk/rucio/user/schae/6a/0b/user.schae.15676178._000003.MiniNtuple.root'
p195
aS'root://fax.mwt2.org:1094//pnfs/uchicago.edu/atlaslocalgroupdisk/rucio/user/schae/b2/03/user.schae.15676178._000004.MiniNtuple.root'
p196
asS'user.schae.v15Loose.364178.Sherpa_221_NNPDF30NNLO_Wenu_MAXHTPTV140_280_BFilter.e5340_s3126_r9364_p3575_MiniNtuple.root'
p197
(lp198
S'root://fax.mwt2.org:1094//pnfs/uchicago.edu/atlaslocalgroupdisk/rucio/user/schae/17/a2/user.schae.15675949._000001.MiniNtuple.root'
p199
aS'root://fax.mwt2.org:1094//pnfs/uchicago.edu/atlaslocalgroupdisk/rucio/user/schae/b6/b2/user.schae.15675949._000002.MiniNtuple.root'
p200
aS'root://fax.mwt2.org:1094//pnfs/uchicago.edu/atlaslocalgroupdisk/rucio/user/schae/62/bd/user.schae.15675949._000003.MiniNtuple.root'
p201
aS'root://fax.mwt2.org:1094//pnfs/uchicago.edu/atlaslocalgroupdisk/rucio/user/schae/e0/90/user.schae.15675949._000004.MiniNtuple.root'
p202
aS'root://fax.mwt2.org:1094//pnfs/uchicago.edu/atlaslocalgroupdisk/rucio/user/schae/b2/6e/user.schae.15675949._000005.MiniNtuple.root'
p203
aS'root://fax.mwt2.org:1094//pnfs/uchicago.edu/atlaslocalgroupdisk/rucio/user/schae/8b/42/user.schae.15675949._000006.MiniNtuple.root'
p204
aS'root://fax.mwt2.org:1094//pnfs/uchicago.edu/atlaslocalgroupdisk/rucio/user/schae/8e/9d/user.schae.15675949._000007.MiniNtuple.root'
p205
aS'root://fax.mwt2.org:1094//pnfs/uchicago.edu/atlaslocalgroupdisk/rucio/user/schae/9c/da/user.schae.15675949._000008.MiniNtuple.root'
p206
asS'user.schae.v15Loose.308567.PowhegPy8EG_NNPDF30_AZNLOCTEQ6L1_VBFH125_ZZ4nu_125MET.e6126_s3126_r9364_p3575_MiniNtuple.root'
p207
(lp208
S'root://fax.mwt2.org:1094//pnfs/uchicago.edu/atlaslocalgroupdisk/rucio/user/schae/59/f8/user.schae.15675770._000001.MiniNtuple.root'
p209
asS'user.schae.v15Loose.364194.Sherpa_221_NNPDF30NNLO_Wtaunu_MAXHTPTV280_500_CFilterBVeto.e5340_s3126_r9364_p3575_MiniNtuple.root'
p210
(lp211
S'root://fax.mwt2.org:1094//pnfs/uchicago.edu/atlaslocalgroupdisk/rucio/user/schae/8f/78/user.schae.15676164._000001.MiniNtuple.root'
p212
aS'root://fax.mwt2.org:1094//pnfs/uchicago.edu/atlaslocalgroupdisk/rucio/user/schae/47/b3/user.schae.15676164._000002.MiniNtuple.root'
p213
aS'root://fax.mwt2.org:1094//pnfs/uchicago.edu/atlaslocalgroupdisk/rucio/user/schae/dc/9c/user.schae.15676164._000003.MiniNtuple.root'
p214
asS'user.schae.v15Loose.364105.Sherpa_221_NNPDF30NNLO_Zmumu_MAXHTPTV70_140_BFilter.e5271_s3126_r9364_p3575_MiniNtuple.root'
p215
(lp216
S'root://fax.mwt2.org:1094//pnfs/uchicago.edu/atlaslocalgroupdisk/rucio/user/schae/a0/97/user.schae.15676359._000001.MiniNtuple.root'
p217
aS'root://fax.mwt2.org:1094//pnfs/uchicago.edu/atlaslocalgroupdisk/rucio/user/schae/b1/3d/user.schae.15676359._000002.MiniNtuple.root'
p218
asS'user.schae.v15Loose.308284.PowhegPythia8EvtGen_NNLOPS_nnlo_30_ggH125_ZZ4nu_MET75.e6126_s3126_r9364_p3575_MiniNtuple.root'
p219
(lp220
S'root://fax.mwt2.org:1094//pnfs/uchicago.edu/atlaslocalgroupdisk/rucio/user/schae/42/51/user.schae.15675775._000001.MiniNtuple.root'
p221
asS'user.schae.v15Loose.308093.Sherpa_221_NNPDF30NNLO_Zmm2jets_Min_N_TChannel.e5767_s3126_r9364_p3575_MiniNtuple.root'
p222
(lp223
S'root://fax.mwt2.org:1094//pnfs/uchicago.edu/atlaslocalgroupdisk/rucio/user/schae/97/43/user.schae.15675851._000001.MiniNtuple.root'
p224
asS'user.schae.v15Loose.364124.Sherpa_221_NNPDF30NNLO_Zee_MAXHTPTV280_500_CFilterBVeto.e5299_s3126_r9364_p3575_MiniNtuple.root'
p225
(lp226
S'root://fax.mwt2.org:1094//pnfs/uchicago.edu/atlaslocalgroupdisk/rucio/user/schae/f3/41/user.schae.15676282._000001.MiniNtuple.root'
p227
aS'root://fax.mwt2.org:1094//pnfs/uchicago.edu/atlaslocalgroupdisk/rucio/user/schae/68/a6/user.schae.15676282._000002.MiniNtuple.root'
p228
asS'user.schae.v14Loose.00276176.physics_Main.r9412_p3083_p3576_MiniNtuple.root'
p229
(lp230
S'/share/t3data2/schae/v14Loose/user.schae.v14Loose.00276176.physics_Main.r9412_p3083_p3576_MiniNtuple.root/user.schae.15632445._000001.MiniNtuple.root'
p231
asS'user.schae.v15Loose.410025.PowhegPythiaEvtGen_P2012_SingleTopSchan_noAllHad_top.e3998_s3126_r9364_p3575_MiniNtuple.root'
p232
(lp233
S'root://fax.mwt2.org:1094//pnfs/uchicago.edu/atlaslocalgroupdisk/rucio/user/schae/43/0e/user.schae.15676758._000001.MiniNtuple.root'
p234
aS'root://fax.mwt2.org:1094//pnfs/uchicago.edu/atlaslocalgroupdisk/rucio/user/schae/8c/89/user.schae.15676758._000002.MiniNtuple.root'
p235
aS'root://fax.mwt2.org:1094//pnfs/uchicago.edu/atlaslocalgroupdisk/rucio/user/schae/dd/ab/user.schae.15676758._000003.MiniNtuple.root'
p236
asS'user.schae.v15Loose.364109.Sherpa_221_NNPDF30NNLO_Zmumu_MAXHTPTV280_500_CVetoBVeto.e5271_s3126_r9364_p3575_MiniNtuple.root'
p237
(lp238
S'/share/t3data2/schae/v14Loose/user.schae.v15Loose.364109.Sherpa_221_NNPDF30NNLO_Zmumu_MAXHTPTV280_500_CVetoBVeto.e5271_s3126_r9364_p3575_MiniNtuple.root/user.schae.15676402._000001.MiniNtuple.root'
p239
aS'/share/t3data2/schae/v14Loose/user.schae.v15Loose.364109.Sherpa_221_NNPDF30NNLO_Zmumu_MAXHTPTV280_500_CVetoBVeto.e5271_s3126_r9364_p3575_MiniNtuple.root/user.schae.15676402._000002.MiniNtuple.root'
p240
asS'user.schae.v15Loose.364160.Sherpa_221_NNPDF30NNLO_Wmunu_MAXHTPTV70_140_CFilterBVeto.e5340_s3126_r9364_p3575_MiniNtuple.root'
p241
(lp242
S'root://fax.mwt2.org:1094//pnfs/uchicago.edu/atlaslocalgroupdisk/rucio/user/schae/76/08/user.schae.15676028._000001.MiniNtuple.root'
p243
aS'root://fax.mwt2.org:1094//pnfs/uchicago.edu/atlaslocalgroupdisk/rucio/user/schae/ca/56/user.schae.15676028._000002.MiniNtuple.root'
p244
asS'user.schae.v15Loose.364145.Sherpa_221_NNPDF30NNLO_Znunu_MAXHTPTV70_140_CVetoBVeto.e5308_s3126_r9364_p3575_MiniNtuple.root'
p245
(lp246
S'root://fax.mwt2.org:1094//pnfs/uchicago.edu/atlaslocalgroupdisk/rucio/user/schae/e9/4a/user.schae.15676587._000001.MiniNtuple.root'
p247
aS'root://fax.mwt2.org:1094//pnfs/uchicago.edu/atlaslocalgroupdisk/rucio/user/schae/2d/18/user.schae.15676587._000002.MiniNtuple.root'
p248
asS'user.schae.v15Loose.364161.Sherpa_221_NNPDF30NNLO_Wmunu_MAXHTPTV70_140_BFilter.e5340_s3126_r9364_p3575_MiniNtuple.root'
p249
(lp250
S'root://fax.mwt2.org:1094//pnfs/uchicago.edu/atlaslocalgroupdisk/rucio/user/schae/2a/a5/user.schae.15676034._000001.MiniNtuple.root'
p251
aS'root://fax.mwt2.org:1094//pnfs/uchicago.edu/atlaslocalgroupdisk/rucio/user/schae/c2/54/user.schae.15676034._000002.MiniNtuple.root'
p252
aS'root://fax.mwt2.org:1094//pnfs/uchicago.edu/atlaslocalgroupdisk/rucio/user/schae/90/2f/user.schae.15676034._000003.MiniNtuple.root'
p253
aS'root://fax.mwt2.org:1094//pnfs/uchicago.edu/atlaslocalgroupdisk/rucio/user/schae/cc/ef/user.schae.15676034._000004.MiniNtuple.root'
p254
asS'user.schae.v15Loose.364107.Sherpa_221_NNPDF30NNLO_Zmumu_MAXHTPTV140_280_CFilterBVeto.e5271_s3126_r9364_p3575_MiniNtuple.root'
p255
(lp256
S'root://fax.mwt2.org:1094//pnfs/uchicago.edu/atlaslocalgroupdisk/rucio/user/schae/70/c8/user.schae.15676383._000001.MiniNtuple.root'
p257
aS'root://fax.mwt2.org:1094//pnfs/uchicago.edu/atlaslocalgroupdisk/rucio/user/schae/27/61/user.schae.15676383._000002.MiniNtuple.root'
p258
asS'user.schae.v15Loose.364195.Sherpa_221_NNPDF30NNLO_Wtaunu_MAXHTPTV280_500_BFilter.e5340_s3126_r9364_p3575_MiniNtuple.root'
p259
(lp260
S'/share/t3data2/schae/v14Loose/user.schae.v15Loose.364195.Sherpa_221_NNPDF30NNLO_Wtaunu_MAXHTPTV280_500_BFilter.e5340_s3126_r9364_p3575_MiniNtuple.root/user.schae.15676171._000001.MiniNtuple.root'
p261
aS'/share/t3data2/schae/v14Loose/user.schae.v15Loose.364195.Sherpa_221_NNPDF30NNLO_Wtaunu_MAXHTPTV280_500_BFilter.e5340_s3126_r9364_p3575_MiniNtuple.root/user.schae.15676171._000002.MiniNtuple.root'
p262
aS'/share/t3data2/schae/v14Loose/user.schae.v15Loose.364195.Sherpa_221_NNPDF30NNLO_Wtaunu_MAXHTPTV280_500_BFilter.e5340_s3126_r9364_p3575_MiniNtuple.root/user.schae.15676171._000003.MiniNtuple.root'
p263
asS'user.schae.v15Loose.364138.Sherpa_221_NNPDF30NNLO_Ztautau_MAXHTPTV280_500_CFilterBVeto.e5313_s3126_r9364_p3575_MiniNtuple.root'
p264
(lp265
S'/share/t3data2/schae/v14Loose/user.schae.v15Loose.364138.Sherpa_221_NNPDF30NNLO_Ztautau_MAXHTPTV280_500_CFilterBVeto.e5313_s3126_r9364_p3575_MiniNtuple.root/user.schae.15676533._000001.MiniNtuple.root'
p266
aS'/share/t3data2/schae/v14Loose/user.schae.v15Loose.364138.Sherpa_221_NNPDF30NNLO_Ztautau_MAXHTPTV280_500_CFilterBVeto.e5313_s3126_r9364_p3575_MiniNtuple.root/user.schae.15676533._000002.MiniNtuple.root'
p267
asS'user.schae.v15Loose.364128.Sherpa_221_NNPDF30NNLO_Ztautau_MAXHTPTV0_70_CVetoBVeto.e5307_s3126_r9364_p3575_MiniNtuple.root'
p268
(lp269
S'root://fax.mwt2.org:1094//pnfs/uchicago.edu/atlaslocalgroupdisk/rucio/user/schae/27/1f/user.schae.15676453._000001.MiniNtuple.root'
p270
aS'root://fax.mwt2.org:1094//pnfs/uchicago.edu/atlaslocalgroupdisk/rucio/user/schae/23/86/user.schae.15676453._000002.MiniNtuple.root'
p271
asS'user.schae.v15Loose.364157.Sherpa_221_NNPDF30NNLO_Wmunu_MAXHTPTV0_70_CFilterBVeto.e5340_s3126_r9364_p3575_MiniNtuple.root'
p272
(lp273
S'root://fax.mwt2.org:1094//pnfs/uchicago.edu/atlaslocalgroupdisk/rucio/user/schae/32/d4/user.schae.15676002._000001.MiniNtuple.root'
p274
aS'root://fax.mwt2.org:1094//pnfs/uchicago.edu/atlaslocalgroupdisk/rucio/user/schae/f0/74/user.schae.15676002._000002.MiniNtuple.root'
p275
asS'user.schae.v15Loose.364103.Sherpa_221_NNPDF30NNLO_Zmumu_MAXHTPTV70_140_CVetoBVeto.e5271_s3126_r9364_p3575_MiniNtuple.root'
p276
(lp277
S'/share/t3data2/schae/v14Loose/user.schae.v15Loose.364103.Sherpa_221_NNPDF30NNLO_Zmumu_MAXHTPTV70_140_CVetoBVeto.e5271_s3126_r9364_p3575_MiniNtuple.root/user.schae.15676342._000001.MiniNtuple.root'
p278
aS'/share/t3data2/schae/v14Loose/user.schae.v15Loose.364103.Sherpa_221_NNPDF30NNLO_Zmumu_MAXHTPTV70_140_CVetoBVeto.e5271_s3126_r9364_p3575_MiniNtuple.root/user.schae.15676342._000002.MiniNtuple.root'
p279
asS'user.schae.v15Loose.364104.Sherpa_221_NNPDF30NNLO_Zmumu_MAXHTPTV70_140_CFilterBVeto.e5271_s3126_r9364_p3575_MiniNtuple.root'
p280
(lp281
S'root://fax.mwt2.org:1094//pnfs/uchicago.edu/atlaslocalgroupdisk/rucio/user/schae/7a/41/user.schae.15676348._000001.MiniNtuple.root'
p282
aS'root://fax.mwt2.org:1094//pnfs/uchicago.edu/atlaslocalgroupdisk/rucio/user/schae/0c/e8/user.schae.15676348._000002.MiniNtuple.root'
p283
asS'user.schae.v15Loose.364135.Sherpa_221_NNPDF30NNLO_Ztautau_MAXHTPTV140_280_CFilterBVeto.e5307_s3126_r9364_p3575_MiniNtuple.root'
p284
(lp285
S'root://fax.mwt2.org:1094//pnfs/uchicago.edu/atlaslocalgroupdisk/rucio/user/schae/1a/d1/user.schae.15676511._000001.MiniNtuple.root'
p286
aS'root://fax.mwt2.org:1094//pnfs/uchicago.edu/atlaslocalgroupdisk/rucio/user/schae/26/31/user.schae.15676511._000002.MiniNtuple.root'
p287
asS'user.schae.v15Loose.364136.Sherpa_221_NNPDF30NNLO_Ztautau_MAXHTPTV140_280_BFilter.e5307_s3126_r9364_p3575_MiniNtuple.root'
p288
(lp289
S'root://fax.mwt2.org:1094//pnfs/uchicago.edu/atlaslocalgroupdisk/rucio/user/schae/4e/67/user.schae.15676518._000001.MiniNtuple.root'
p290
aS'root://fax.mwt2.org:1094//pnfs/uchicago.edu/atlaslocalgroupdisk/rucio/user/schae/a4/0f/user.schae.15676518._000002.MiniNtuple.root'
p291
aS'root://fax.mwt2.org:1094//pnfs/uchicago.edu/atlaslocalgroupdisk/rucio/user/schae/aa/0f/user.schae.15676518._000003.MiniNtuple.root'
p292
aS'root://fax.mwt2.org:1094//pnfs/uchicago.edu/atlaslocalgroupdisk/rucio/user/schae/d5/55/user.schae.15676518._000004.MiniNtuple.root'
p293
aS'root://fax.mwt2.org:1094//pnfs/uchicago.edu/atlaslocalgroupdisk/rucio/user/schae/4e/59/user.schae.15676518._000005.MiniNtuple.root'
p294
asS'user.schae.v15Loose.364134.Sherpa_221_NNPDF30NNLO_Ztautau_MAXHTPTV140_280_CVetoBVeto.e5307_s3126_r9364_p3575_MiniNtuple.root'
p295
(lp296
S'root://fax.mwt2.org:1094//pnfs/uchicago.edu/atlaslocalgroupdisk/rucio/user/schae/1c/06/user.schae.15676504._000001.MiniNtuple.root'
p297
aS'root://fax.mwt2.org:1094//pnfs/uchicago.edu/atlaslocalgroupdisk/rucio/user/schae/2b/50/user.schae.15676504._000002.MiniNtuple.root'
p298
aS'root://fax.mwt2.org:1094//pnfs/uchicago.edu/atlaslocalgroupdisk/rucio/user/schae/d4/2d/user.schae.15676504._000003.MiniNtuple.root'
p299
asS'user.schae.v15Loose.364120.Sherpa_221_NNPDF30NNLO_Zee_MAXHTPTV140_280_CVetoBVeto.e5299_s3126_r9364_p3575_MiniNtuple.root'
p300
(lp301
S'/share/t3data2/schae/v14Loose/user.schae.v15Loose.364120.Sherpa_221_NNPDF30NNLO_Zee_MAXHTPTV140_280_CVetoBVeto.e5299_s3126_r9364_p3575_MiniNtuple.root/user.schae.15676243._000001.MiniNtuple.root'
p302
aS'/share/t3data2/schae/v14Loose/user.schae.v15Loose.364120.Sherpa_221_NNPDF30NNLO_Zee_MAXHTPTV140_280_CVetoBVeto.e5299_s3126_r9364_p3575_MiniNtuple.root/user.schae.15676243._000002.MiniNtuple.root'
p303
aS'/share/t3data2/schae/v14Loose/user.schae.v15Loose.364120.Sherpa_221_NNPDF30NNLO_Zee_MAXHTPTV140_280_CVetoBVeto.e5299_s3126_r9364_p3575_MiniNtuple.root/user.schae.15676243._000003.MiniNtuple.root'
p304
aS'/share/t3data2/schae/v14Loose/user.schae.v15Loose.364120.Sherpa_221_NNPDF30NNLO_Zee_MAXHTPTV140_280_CVetoBVeto.e5299_s3126_r9364_p3575_MiniNtuple.root/user.schae.15676243._000004.MiniNtuple.root'
p305
asS'user.schae.v15Loose.364139.Sherpa_221_NNPDF30NNLO_Ztautau_MAXHTPTV280_500_BFilter.e5313_s3126_r9364_p3575_MiniNtuple.root'
p306
(lp307
S'root://fax.mwt2.org:1094//pnfs/uchicago.edu/atlaslocalgroupdisk/rucio/user/schae/b8/88/user.schae.15676541._000001.MiniNtuple.root'
p308
aS'root://fax.mwt2.org:1094//pnfs/uchicago.edu/atlaslocalgroupdisk/rucio/user/schae/67/e5/user.schae.15676541._000002.MiniNtuple.root'
p309
aS'root://fax.mwt2.org:1094//pnfs/uchicago.edu/atlaslocalgroupdisk/rucio/user/schae/47/80/user.schae.15676541._000003.MiniNtuple.root'
p310
aS'root://fax.mwt2.org:1094//pnfs/uchicago.edu/atlaslocalgroupdisk/rucio/user/schae/80/a0/user.schae.15676541._000004.MiniNtuple.root'
p311
asS'user.schae.v15Loose.364121.Sherpa_221_NNPDF30NNLO_Zee_MAXHTPTV140_280_CFilterBVeto.e5299_s3126_r9364_p3575_MiniNtuple.root'
p312
(lp313
S'root://fax.mwt2.org:1094//pnfs/uchicago.edu/atlaslocalgroupdisk/rucio/user/schae/63/2b/user.schae.15676252._000001.MiniNtuple.root'
p314
aS'root://fax.mwt2.org:1094//pnfs/uchicago.edu/atlaslocalgroupdisk/rucio/user/schae/4a/4f/user.schae.15676252._000002.MiniNtuple.root'
p315
aS'root://fax.mwt2.org:1094//pnfs/uchicago.edu/atlaslocalgroupdisk/rucio/user/schae/e2/57/user.schae.15676252._000003.MiniNtuple.root'
p316
asS'user.schae.v15Loose.364188.Sherpa_221_NNPDF30NNLO_Wtaunu_MAXHTPTV70_140_CFilterBVeto.e5340_s3126_r9364_p3575_MiniNtuple.root'
p317
(lp318
S'root://fax.mwt2.org:1094//pnfs/uchicago.edu/atlaslocalgroupdisk/rucio/user/schae/2c/c5/user.schae.15676126._000001.MiniNtuple.root'
p319
aS'root://fax.mwt2.org:1094//pnfs/uchicago.edu/atlaslocalgroupdisk/rucio/user/schae/54/82/user.schae.15676126._000002.MiniNtuple.root'
p320
asS'user.schae.v15Loose.364114.Sherpa_221_NNPDF30NNLO_Zee_MAXHTPTV0_70_CVetoBVeto.e5299_s3126_r9364_p3575_MiniNtuple.root'
p321
(lp322
S'/share/t3data2/schae/v14Loose/user.schae.v15Loose.364114.Sherpa_221_NNPDF30NNLO_Zee_MAXHTPTV0_70_CVetoBVeto.e5299_s3126_r9364_p3575_MiniNtuple.root/user.schae.15676190._000001.MiniNtuple.root'
p323
aS'/share/t3data2/schae/v14Loose/user.schae.v15Loose.364114.Sherpa_221_NNPDF30NNLO_Zee_MAXHTPTV0_70_CVetoBVeto.e5299_s3126_r9364_p3575_MiniNtuple.root/user.schae.15676190._000002.MiniNtuple.root'
p324
asS'user.schae.v15Loose.364119.Sherpa_221_NNPDF30NNLO_Zee_MAXHTPTV70_140_BFilter.e5299_s3126_r9364_p3575_MiniNtuple.root'
p325
(lp326
S'root://fax.mwt2.org:1094//pnfs/uchicago.edu/atlaslocalgroupdisk/rucio/user/schae/a2/20/user.schae.15676233._000001.MiniNtuple.root'
p327
aS'root://fax.mwt2.org:1094//pnfs/uchicago.edu/atlaslocalgroupdisk/rucio/user/schae/5f/bf/user.schae.15676233._000002.MiniNtuple.root'
p328
aS'root://fax.mwt2.org:1094//pnfs/uchicago.edu/atlaslocalgroupdisk/rucio/user/schae/a8/08/user.schae.15676233._000003.MiniNtuple.root'
p329
asS'user.schae.v15Loose.364179.Sherpa_221_NNPDF30NNLO_Wenu_MAXHTPTV280_500_CVetoBVeto.e5340_s3126_r9364_p3575_MiniNtuple.root'
p330
(lp331
S'root://fax.mwt2.org:1094//pnfs/uchicago.edu/atlaslocalgroupdisk/rucio/user/schae/19/50/user.schae.15675958._000001.MiniNtuple.root'
p332
aS'root://fax.mwt2.org:1094//pnfs/uchicago.edu/atlaslocalgroupdisk/rucio/user/schae/fb/8f/user.schae.15675958._000002.MiniNtuple.root'
p333
aS'root://fax.mwt2.org:1094//pnfs/uchicago.edu/atlaslocalgroupdisk/rucio/user/schae/ba/93/user.schae.15675958._000003.MiniNtuple.root'
p334
aS'root://fax.mwt2.org:1094//pnfs/uchicago.edu/atlaslocalgroupdisk/rucio/user/schae/25/29/user.schae.15675958._000004.MiniNtuple.root'
p335
asS'user.schae.v15Loose.364185.Sherpa_221_NNPDF30NNLO_Wtaunu_MAXHTPTV0_70_CFilterBVeto.e5340_s3126_r9364_p3575_MiniNtuple.root'
p336
(lp337
S'root://fax.mwt2.org:1094//pnfs/uchicago.edu/atlaslocalgroupdisk/rucio/user/schae/49/20/user.schae.15676108._000001.MiniNtuple.root'
p338
aS'root://fax.mwt2.org:1094//pnfs/uchicago.edu/atlaslocalgroupdisk/rucio/user/schae/d6/14/user.schae.15676108._000002.MiniNtuple.root'
p339
asS'user.schae.v15Loose.364117.Sherpa_221_NNPDF30NNLO_Zee_MAXHTPTV70_140_CVetoBVeto.e5299_s3126_r9364_p3575_MiniNtuple.root'
p340
(lp341
S'root://fax.mwt2.org:1094//pnfs/uchicago.edu/atlaslocalgroupdisk/rucio/user/schae/6f/cb/user.schae.15676218._000001.MiniNtuple.root'
p342
aS'root://fax.mwt2.org:1094//pnfs/uchicago.edu/atlaslocalgroupdisk/rucio/user/schae/4a/a8/user.schae.15676218._000002.MiniNtuple.root'
p343
aS'root://fax.mwt2.org:1094//pnfs/uchicago.edu/atlaslocalgroupdisk/rucio/user/schae/e0/53/user.schae.15676218._000003.MiniNtuple.root'
p344
aS'root://fax.mwt2.org:1094//pnfs/uchicago.edu/atlaslocalgroupdisk/rucio/user/schae/20/bd/user.schae.15676218._000004.MiniNtuple.root'
p345
asS'user.schae.v15Loose.364130.Sherpa_221_NNPDF30NNLO_Ztautau_MAXHTPTV0_70_BFilter.e5307_s3126_r9364_p3575_MiniNtuple.root'
p346
(lp347
S'root://fax.mwt2.org:1094//pnfs/uchicago.edu/atlaslocalgroupdisk/rucio/user/schae/65/a7/user.schae.15676473._000001.MiniNtuple.root'
p348
aS'root://fax.mwt2.org:1094//pnfs/uchicago.edu/atlaslocalgroupdisk/rucio/user/schae/9f/1d/user.schae.15676473._000002.MiniNtuple.root'
p349
aS'root://fax.mwt2.org:1094//pnfs/uchicago.edu/atlaslocalgroupdisk/rucio/user/schae/33/78/user.schae.15676473._000003.MiniNtuple.root'
p350
asS'user.schae.v15Loose.364173.Sherpa_221_NNPDF30NNLO_Wenu_MAXHTPTV70_140_CVetoBVeto.e5340_s3126_r9364_p3575_MiniNtuple.root'
p351
(lp352
S'root://fax.mwt2.org:1094//pnfs/uchicago.edu/atlaslocalgroupdisk/rucio/user/schae/82/d9/user.schae.15675913._000001.MiniNtuple.root'
p353
aS'root://fax.mwt2.org:1094//pnfs/uchicago.edu/atlaslocalgroupdisk/rucio/user/schae/0b/4e/user.schae.15675913._000002.MiniNtuple.root'
p354
aS'root://fax.mwt2.org:1094//pnfs/uchicago.edu/atlaslocalgroupdisk/rucio/user/schae/40/61/user.schae.15675913._000003.MiniNtuple.root'
p355
asS'user.schae.v15Loose.364106.Sherpa_221_NNPDF30NNLO_Zmumu_MAXHTPTV140_280_CVetoBVeto.e5271_s3126_r9364_p3575_MiniNtuple.root'
p356
(lp357
S'root://fax.mwt2.org:1094//pnfs/uchicago.edu/atlaslocalgroupdisk/rucio/user/schae/08/06/user.schae.15676367._000001.MiniNtuple.root'
p358
aS'root://fax.mwt2.org:1094//pnfs/uchicago.edu/atlaslocalgroupdisk/rucio/user/schae/63/8e/user.schae.15676367._000002.MiniNtuple.root'
p359
aS'root://fax.mwt2.org:1094//pnfs/uchicago.edu/atlaslocalgroupdisk/rucio/user/schae/22/d3/user.schae.15676367._000003.MiniNtuple.root'
p360
asS'user.schae.v15Loose.363630.MGPy8EG_N30NLO_Wmunu_Ht140_280_CVetoBVeto.e4944_s3126_r9364_p3575_MiniNtuple.root'
p361
(lp362
S'root://fax.mwt2.org:1094//pnfs/uchicago.edu/atlaslocalgroupdisk/rucio/user/schae/34/1f/user.schae.15686082._000001.MiniNtuple.root'
p363
aS'root://fax.mwt2.org:1094//pnfs/uchicago.edu/atlaslocalgroupdisk/rucio/user/schae/f7/24/user.schae.15686082._000002.MiniNtuple.root'
p364
aS'root://fax.mwt2.org:1094//pnfs/uchicago.edu/atlaslocalgroupdisk/rucio/user/schae/9a/08/user.schae.15686082._000003.MiniNtuple.root'
p365
asS'user.schae.v15Loose.410011.PowhegPythiaEvtGen_P2012_singletop_tchan_lept_top.e3824_s3126_r9364_p3575_MiniNtuple.root'
p366
(lp367
S'root://fax.mwt2.org:1094//pnfs/uchicago.edu/atlaslocalgroupdisk/rucio/user/schae/ec/fb/user.schae.15676727._000001.MiniNtuple.root'
p368
aS'root://fax.mwt2.org:1094//pnfs/uchicago.edu/atlaslocalgroupdisk/rucio/user/schae/17/d6/user.schae.15676727._000002.MiniNtuple.root'
p369
aS'root://fax.mwt2.org:1094//pnfs/uchicago.edu/atlaslocalgroupdisk/rucio/user/schae/d3/09/user.schae.15676727._000003.MiniNtuple.root'
p370
asS'user.schae.v15Loose.410013.PowhegPythiaEvtGen_P2012_Wt_inclusive_top.e3753_s3126_r9364_p3575_MiniNtuple.root'
p371
(lp372
S'root://fax.mwt2.org:1094//pnfs/uchicago.edu/atlaslocalgroupdisk/rucio/user/schae/a2/39/user.schae.15676743._000001.MiniNtuple.root'
p373
aS'root://fax.mwt2.org:1094//pnfs/uchicago.edu/atlaslocalgroupdisk/rucio/user/schae/a5/78/user.schae.15676743._000002.MiniNtuple.root'
p374
aS'root://fax.mwt2.org:1094//pnfs/uchicago.edu/atlaslocalgroupdisk/rucio/user/schae/6f/c3/user.schae.15676743._000003.MiniNtuple.root'
p375
asS'user.schae.v15Loose.364172.Sherpa_221_NNPDF30NNLO_Wenu_MAXHTPTV0_70_BFilter.e5340_s3126_r9364_p3575_MiniNtuple.root'
p376
(lp377
S'root://fax.mwt2.org:1094//pnfs/uchicago.edu/atlaslocalgroupdisk/rucio/user/schae/24/a8/user.schae.15675907._000001.MiniNtuple.root'
p378
aS'root://fax.mwt2.org:1094//pnfs/uchicago.edu/atlaslocalgroupdisk/rucio/user/schae/ae/69/user.schae.15675907._000002.MiniNtuple.root'
p379
asS'user.schae.v15Loose.364140.Sherpa_221_NNPDF30NNLO_Ztautau_MAXHTPTV500_1000.e5307_s3126_r9364_p3575_MiniNtuple.root'
p380
(lp381
S'root://fax.mwt2.org:1094//pnfs/uchicago.edu/atlaslocalgroupdisk/rucio/user/schae/75/a5/user.schae.15676552._000001.MiniNtuple.root'
p382
aS'root://fax.mwt2.org:1094//pnfs/uchicago.edu/atlaslocalgroupdisk/rucio/user/schae/51/52/user.schae.15676552._000002.MiniNtuple.root'
p383
aS'root://fax.mwt2.org:1094//pnfs/uchicago.edu/atlaslocalgroupdisk/rucio/user/schae/56/7d/user.schae.15676552._000003.MiniNtuple.root'
p384
asS'user.schae.v15Loose.364154.Sherpa_221_NNPDF30NNLO_Znunu_MAXHTPTV500_1000.e5308_s3126_r9364_p3575_MiniNtuple.root'
p385
(lp386
S'root://fax.mwt2.org:1094//pnfs/uchicago.edu/atlaslocalgroupdisk/rucio/user/schae/05/e1/user.schae.15676707._000001.MiniNtuple.root'
p387
aS'root://fax.mwt2.org:1094//pnfs/uchicago.edu/atlaslocalgroupdisk/rucio/user/schae/25/96/user.schae.15676707._000002.MiniNtuple.root'
p388
aS'root://fax.mwt2.org:1094//pnfs/uchicago.edu/atlaslocalgroupdisk/rucio/user/schae/d2/97/user.schae.15676707._000003.MiniNtuple.root'
p389
asS'user.schae.v15Loose.410014.PowhegPythiaEvtGen_P2012_Wt_inclusive_antitop.e3753_s3126_r9364_p3575_MiniNtuple.root'
p390
(lp391
S'root://fax.mwt2.org:1094//pnfs/uchicago.edu/atlaslocalgroupdisk/rucio/user/schae/a1/cc/user.schae.15676751._000001.MiniNtuple.root'
p392
aS'root://fax.mwt2.org:1094//pnfs/uchicago.edu/atlaslocalgroupdisk/rucio/user/schae/94/80/user.schae.15676751._000002.MiniNtuple.root'
p393
aS'root://fax.mwt2.org:1094//pnfs/uchicago.edu/atlaslocalgroupdisk/rucio/user/schae/d3/0b/user.schae.15676751._000003.MiniNtuple.root'
p394
asS'user.schae.v15Loose.364168.Sherpa_221_NNPDF30NNLO_Wmunu_MAXHTPTV500_1000.e5340_s3126_r9364_p3575_MiniNtuple.root'
p395
(lp396
S'root://fax.mwt2.org:1094//pnfs/uchicago.edu/atlaslocalgroupdisk/rucio/user/schae/26/b4/user.schae.15676078._000001.MiniNtuple.root'
p397
aS'root://fax.mwt2.org:1094//pnfs/uchicago.edu/atlaslocalgroupdisk/rucio/user/schae/5d/29/user.schae.15676078._000002.MiniNtuple.root'
p398
aS'root://fax.mwt2.org:1094//pnfs/uchicago.edu/atlaslocalgroupdisk/rucio/user/schae/bc/2a/user.schae.15676078._000003.MiniNtuple.root'
p399
aS'root://fax.mwt2.org:1094//pnfs/uchicago.edu/atlaslocalgroupdisk/rucio/user/schae/db/40/user.schae.15676078._000004.MiniNtuple.root'
p400
asS'user.schae.v14Loose.00280423.physics_Main.r9264_p3083_p3576_MiniNtuple.root'
p401
(lp402
S'/share/t3data2/schae/v14Loose/user.schae.v14Loose.00280423.physics_Main.r9264_p3083_p3576_MiniNtuple.root/user.schae.15632384._000001.MiniNtuple.root'
p403
aS'/share/t3data2/schae/v14Loose/user.schae.v14Loose.00280423.physics_Main.r9264_p3083_p3576_MiniNtuple.root/user.schae.15632384._000002.MiniNtuple.root'
p404
asS'user.schae.v15Loose.364127.Sherpa_221_NNPDF30NNLO_Zee_MAXHTPTV1000_E_CMS.e5299_s3126_r9364_p3575_MiniNtuple.root'
p405
(lp406
S'root://fax.mwt2.org:1094//pnfs/uchicago.edu/atlaslocalgroupdisk/rucio/user/schae/01/b8/user.schae.15676308._000001.MiniNtuple.root'
p407
aS'root://fax.mwt2.org:1094//pnfs/uchicago.edu/atlaslocalgroupdisk/rucio/user/schae/78/89/user.schae.15676308._000002.MiniNtuple.root'
p408
asS'user.schae.v15Loose.364132.Sherpa_221_NNPDF30NNLO_Ztautau_MAXHTPTV70_140_CFilterBVeto.e5307_s3126_r9364_p3575_MiniNtuple.root'
p409
(lp410
S'root://fax.mwt2.org:1094//pnfs/uchicago.edu/atlaslocalgroupdisk/rucio/user/schae/8e/a3/user.schae.15676488._000001.MiniNtuple.root'
p411
asS'user.schae.v15Loose.364177.Sherpa_221_NNPDF30NNLO_Wenu_MAXHTPTV140_280_CFilterBVeto.e5340_s3126_r9364_p3575_MiniNtuple.root'
p412
(lp413
S'/share/t3data2/schae/v14Loose/user.schae.v15Loose.364177.Sherpa_221_NNPDF30NNLO_Wenu_MAXHTPTV140_280_CFilterBVeto.e5340_s3126_r9364_p3575_MiniNtuple.root/user.schae.15675941._000001.MiniNtuple.root'
p414
aS'/share/t3data2/schae/v14Loose/user.schae.v15Loose.364177.Sherpa_221_NNPDF30NNLO_Wenu_MAXHTPTV140_280_CFilterBVeto.e5340_s3126_r9364_p3575_MiniNtuple.root/user.schae.15675941._000002.MiniNtuple.root'
p415
aS'/share/t3data2/schae/v14Loose/user.schae.v15Loose.364177.Sherpa_221_NNPDF30NNLO_Wenu_MAXHTPTV140_280_CFilterBVeto.e5340_s3126_r9364_p3575_MiniNtuple.root/user.schae.15675941._000003.MiniNtuple.root'
p416
asS'user.schae.v15Loose.364116.Sherpa_221_NNPDF30NNLO_Zee_MAXHTPTV0_70_BFilter.e5299_s3126_r9364_p3575_MiniNtuple.root'
p417
(lp418
S'root://fax.mwt2.org:1094//pnfs/uchicago.edu/atlaslocalgroupdisk/rucio/user/schae/49/16/user.schae.15676207._000001.MiniNtuple.root'
p419
aS'root://fax.mwt2.org:1094//pnfs/uchicago.edu/atlaslocalgroupdisk/rucio/user/schae/aa/4a/user.schae.15676207._000002.MiniNtuple.root'
p420
asS'user.schae.v15Loose.364190.Sherpa_221_NNPDF30NNLO_Wtaunu_MAXHTPTV140_280_CVetoBVeto.e5340_s3126_r9364_p3575_MiniNtuple.root'
p421
(lp422
S'root://fax.mwt2.org:1094//pnfs/uchicago.edu/atlaslocalgroupdisk/rucio/user/schae/8f/96/user.schae.15676135._000001.MiniNtuple.root'
p423
aS'root://fax.mwt2.org:1094//pnfs/uchicago.edu/atlaslocalgroupdisk/rucio/user/schae/30/bb/user.schae.15676135._000002.MiniNtuple.root'
p424
aS'root://fax.mwt2.org:1094//pnfs/uchicago.edu/atlaslocalgroupdisk/rucio/user/schae/c7/c9/user.schae.15676135._000003.MiniNtuple.root'
p425
asS'user.schae.v15Loose.364113.Sherpa_221_NNPDF30NNLO_Zmumu_MAXHTPTV1000_E_CMS.e5271_s3126_r9364_p3575_MiniNtuple.root'
p426
(lp427
S'root://fax.mwt2.org:1094//pnfs/uchicago.edu/atlaslocalgroupdisk/rucio/user/schae/10/ff/user.schae.15676436._000001.MiniNtuple.root'
p428
aS'root://fax.mwt2.org:1094//pnfs/uchicago.edu/atlaslocalgroupdisk/rucio/user/schae/e4/60/user.schae.15676436._000002.MiniNtuple.root'
p429
asS'user.schae.v15Loose.364144.Sherpa_221_NNPDF30NNLO_Znunu_MAXHTPTV0_70_BFilter.e5308_s3126_r9364_p3575_MiniNtuple.root'
p430
(lp431
S'root://fax.mwt2.org:1094//pnfs/uchicago.edu/atlaslocalgroupdisk/rucio/user/schae/63/2c/user.schae.15676579._000001.MiniNtuple.root'
p432
asS'user.schae.v15Loose.364149.Sherpa_221_NNPDF30NNLO_Znunu_MAXHTPTV140_280_CFilterBVeto.e5308_s3126_r9364_p3575_MiniNtuple.root'
p433
(lp434
S'root://fax.mwt2.org:1094//pnfs/uchicago.edu/atlaslocalgroupdisk/rucio/user/schae/45/a6/user.schae.15676633._000001.MiniNtuple.root'
p435
aS'root://fax.mwt2.org:1094//pnfs/uchicago.edu/atlaslocalgroupdisk/rucio/user/schae/e0/ea/user.schae.15676633._000002.MiniNtuple.root'
p436
aS'root://fax.mwt2.org:1094//pnfs/uchicago.edu/atlaslocalgroupdisk/rucio/user/schae/9c/9d/user.schae.15676633._000003.MiniNtuple.root'
p437
aS'root://fax.mwt2.org:1094//pnfs/uchicago.edu/atlaslocalgroupdisk/rucio/user/schae/3d/53/user.schae.15676633._000004.MiniNtuple.root'
p438
aS'root://fax.mwt2.org:1094//pnfs/uchicago.edu/atlaslocalgroupdisk/rucio/user/schae/26/61/user.schae.15676633._000005.MiniNtuple.root'
p439
asS'user.schae.v15Loose.410026.PowhegPythiaEvtGen_P2012_SingleTopSchan_noAllHad_antitop.e3998_s3126_r9364_p3575_MiniNtuple.root'
p440
(lp441
S'/share/t3data2/schae/v14Loose/user.schae.v15Loose.410026.PowhegPythiaEvtGen_P2012_SingleTopSchan_noAllHad_antitop.e3998_s3126_r9364_p3575_MiniNtuple.root/user.schae.15676767._000001.MiniNtuple.root'
p442
asS'user.schae.v15Loose.363357.Sherpa_221_NNPDF30NNLO_WqqZvv.e5525_s3126_r9364_p3575_MiniNtuple.root'
p443
(lp444
S'root://fax.mwt2.org:1094//pnfs/uchicago.edu/atlaslocalgroupdisk/rucio/user/schae/72/83/user.schae.15675809._000001.MiniNtuple.root'
p445
aS'root://fax.mwt2.org:1094//pnfs/uchicago.edu/atlaslocalgroupdisk/rucio/user/schae/e1/26/user.schae.15675809._000002.MiniNtuple.root'
p446
asS'user.schae.v15Loose.308097.Sherpa_221_NNPDF30NNLO_Wmunu2jets_Min_N_TChannel.e5767_s3126_r9364_p3575_MiniNtuple.root'
p447
(lp448
S'root://fax.mwt2.org:1094//pnfs/uchicago.edu/atlaslocalgroupdisk/rucio/user/schae/2c/16/user.schae.15675879._000001.MiniNtuple.root'
p449
asS'user.schae.v15Loose.364137.Sherpa_221_NNPDF30NNLO_Ztautau_MAXHTPTV280_500_CVetoBVeto.e5307_s3126_r9364_p3575_MiniNtuple.root'
p450
(lp451
S'root://fax.mwt2.org:1094//pnfs/uchicago.edu/atlaslocalgroupdisk/rucio/user/schae/65/0f/user.schae.15676528._000001.MiniNtuple.root'
p452
aS'root://fax.mwt2.org:1094//pnfs/uchicago.edu/atlaslocalgroupdisk/rucio/user/schae/0f/34/user.schae.15676528._000002.MiniNtuple.root'
p453
asS'user.schae.v15Loose.364125.Sherpa_221_NNPDF30NNLO_Zee_MAXHTPTV280_500_BFilter.e5299_s3126_r9364_p3575_MiniNtuple.root'
p454
(lp455
S'root://fax.mwt2.org:1094//pnfs/uchicago.edu/atlaslocalgroupdisk/rucio/user/schae/0f/51/user.schae.15676290._000001.MiniNtuple.root'
p456
aS'root://fax.mwt2.org:1094//pnfs/uchicago.edu/atlaslocalgroupdisk/rucio/user/schae/81/28/user.schae.15676290._000002.MiniNtuple.root'
p457
asS'user.schae.v14Loose.364123.Sherpa_221_NNPDF30NNLO_Zee_MAXHTPTV280_500_CVetoBVeto.e5299_s3126_r9364_p3575_MiniNtuple.root'
p458
(lp459
S'/share/t3data2/schae/v14Loose/user.schae.v14Loose.364123.Sherpa_221_NNPDF30NNLO_Zee_MAXHTPTV280_500_CVetoBVeto.e5299_s3126_r9364_p3575_MiniNtuple.root/user.schae.15625159._000001.MiniNtuple.root'
p460
aS'/share/t3data2/schae/v14Loose/user.schae.v14Loose.364123.Sherpa_221_NNPDF30NNLO_Zee_MAXHTPTV280_500_CVetoBVeto.e5299_s3126_r9364_p3575_MiniNtuple.root/user.schae.15625159._000002.MiniNtuple.root'
p461
aS'/share/t3data2/schae/v14Loose/user.schae.v14Loose.364123.Sherpa_221_NNPDF30NNLO_Zee_MAXHTPTV280_500_CVetoBVeto.e5299_s3126_r9364_p3575_MiniNtuple.root/user.schae.15625159._000003.MiniNtuple.root'
p462
asS'user.schae.v14Loose.00306310.physics_Main.r9264_p3083_p3576_MiniNtuple.root'
p463
(lp464
S'/share/t3data2/schae/v14Loose/user.schae.v14Loose.00306310.physics_Main.r9264_p3083_p3576_MiniNtuple.root/user.schae.15633906._000001.MiniNtuple.root.2'
p465
aS'/share/t3data2/schae/v14Loose/user.schae.v14Loose.00306310.physics_Main.r9264_p3083_p3576_MiniNtuple.root/user.schae.15633906._000002.MiniNtuple.root'
p466
aS'/share/t3data2/schae/v14Loose/user.schae.v14Loose.00306310.physics_Main.r9264_p3083_p3576_MiniNtuple.root/user.schae.15633906._000003.MiniNtuple.root'
p467
aS'/share/t3data2/schae/v14Loose/user.schae.v14Loose.00306310.physics_Main.r9264_p3083_p3576_MiniNtuple.root/user.schae.15633906._000004.MiniNtuple.root'
p468
aS'/share/t3data2/schae/v14Loose/user.schae.v14Loose.00306310.physics_Main.r9264_p3083_p3576_MiniNtuple.root/user.schae.15633906._000005.MiniNtuple.root'
p469
asS'user.schae.v15Loose.363360.Sherpa_221_NNPDF30NNLO_WplvWmqq.e5983_s3126_r9364_p3575_MiniNtuple.root'
p470
(lp471
S'root://fax.mwt2.org:1094//pnfs/uchicago.edu/atlaslocalgroupdisk/rucio/user/schae/c2/7c/user.schae.15675828._000001.MiniNtuple.root'
p472
aS'root://fax.mwt2.org:1094//pnfs/uchicago.edu/atlaslocalgroupdisk/rucio/user/schae/ee/73/user.schae.15675828._000002.MiniNtuple.root'
p473
aS'root://fax.mwt2.org:1094//pnfs/uchicago.edu/atlaslocalgroupdisk/rucio/user/schae/4f/9e/user.schae.15675828._000003.MiniNtuple.root'
p474
asS'user.schae.v15Loose.364171.Sherpa_221_NNPDF30NNLO_Wenu_MAXHTPTV0_70_CFilterBVeto.e5340_s3126_r9364_p3575_MiniNtuple.root'
p475
(lp476
S'root://fax.mwt2.org:1094//pnfs/uchicago.edu/atlaslocalgroupdisk/rucio/user/schae/85/47/user.schae.15675898._000001.MiniNtuple.root'
p477
aS'root://fax.mwt2.org:1094//pnfs/uchicago.edu/atlaslocalgroupdisk/rucio/user/schae/6a/ce/user.schae.15675898._000002.MiniNtuple.root'
p478
asS'user.schae.v15Loose.364164.Sherpa_221_NNPDF30NNLO_Wmunu_MAXHTPTV140_280_BFilter.e5340_s3126_r9364_p3575_MiniNtuple.root'
p479
(lp480
S'root://fax.mwt2.org:1094//pnfs/uchicago.edu/atlaslocalgroupdisk/rucio/user/schae/ac/83/user.schae.15676055._000001.MiniNtuple.root'
p481
aS'root://fax.mwt2.org:1094//pnfs/uchicago.edu/atlaslocalgroupdisk/rucio/user/schae/fd/69/user.schae.15676055._000004.MiniNtuple.root'
p482
aS'root://fax.mwt2.org:1094//pnfs/uchicago.edu/atlaslocalgroupdisk/rucio/user/schae/1b/f1/user.schae.15676055._000008.MiniNtuple.root'
p483
aS'root://fax.mwt2.org:1094//pnfs/uchicago.edu/atlaslocalgroupdisk/rucio/user/schae/ce/5f/user.schae.15676055._000009.MiniNtuple.root'
p484
aS'root://fax.mwt2.org:1094//pnfs/uchicago.edu/atlaslocalgroupdisk/rucio/user/schae/90/42/user.schae.15676055._000011.MiniNtuple.root'
p485
aS'root://fax.mwt2.org:1094//pnfs/uchicago.edu/atlaslocalgroupdisk/rucio/user/schae/7b/53/user.schae.15676055._000012.MiniNtuple.root'
p486
aS'root://fax.mwt2.org:1094//pnfs/uchicago.edu/atlaslocalgroupdisk/rucio/user/schae/af/fe/user.schae.15676055._000013.MiniNtuple.root'
p487
aS'root://fax.mwt2.org:1094//pnfs/uchicago.edu/atlaslocalgroupdisk/rucio/user/schae/2d/6e/user.schae.15676055._000014.MiniNtuple.root'
p488
aS'root://fax.mwt2.org:1094//pnfs/uchicago.edu/atlaslocalgroupdisk/rucio/user/schae/6e/a9/user.schae.15676055._000015.MiniNtuple.root'
p489
asS'user.schae.v15Loose.364191.Sherpa_221_NNPDF30NNLO_Wtaunu_MAXHTPTV140_280_CFilterBVeto.e5340_s3126_r9364_p3575_MiniNtuple.root'
p490
(lp491
S'root://fax.mwt2.org:1094//pnfs/uchicago.edu/atlaslocalgroupdisk/rucio/user/schae/3b/c8/user.schae.15676142._000001.MiniNtuple.root'
p492
aS'root://fax.mwt2.org:1094//pnfs/uchicago.edu/atlaslocalgroupdisk/rucio/user/schae/c1/b1/user.schae.15676142._000002.MiniNtuple.root'
p493
aS'root://fax.mwt2.org:1094//pnfs/uchicago.edu/atlaslocalgroupdisk/rucio/user/schae/7b/a5/user.schae.15676142._000003.MiniNtuple.root'
p494
asS'user.schae.v14Loose.00307454.physics_Main.r9264_p3083_p3576_MiniNtuple.root'
p495
(lp496
S'/share/t3data2/schae/v14Loose/user.schae.v14Loose.00307454.physics_Main.r9264_p3083_p3576_MiniNtuple.root/user.schae.15633948._000001.MiniNtuple.root'
p497
aS'/share/t3data2/schae/v14Loose/user.schae.v14Loose.00307454.physics_Main.r9264_p3083_p3576_MiniNtuple.root/user.schae.15633948._000002.MiniNtuple.root'
p498
aS'/share/t3data2/schae/v14Loose/user.schae.v14Loose.00307454.physics_Main.r9264_p3083_p3576_MiniNtuple.root/user.schae.15633948._000003.MiniNtuple.root'
p499
asS'user.schae.v15Loose.364142.Sherpa_221_NNPDF30NNLO_Znunu_MAXHTPTV0_70_CVetoBVeto.e5308_s3126_r9364_p3575_MiniNtuple.root'
p500
(lp501
S'root://fax.mwt2.org:1094//pnfs/uchicago.edu/atlaslocalgroupdisk/rucio/user/schae/ff/fb/user.schae.15676564._000001.MiniNtuple.root'
p502
asS'user.schae.v15Loose.364180.Sherpa_221_NNPDF30NNLO_Wenu_MAXHTPTV280_500_CFilterBVeto.e5340_s3126_r9364_p3575_MiniNtuple.root'
p503
(lp504
S'root://fax.mwt2.org:1094//pnfs/uchicago.edu/atlaslocalgroupdisk/rucio/user/schae/c6/2a/user.schae.15675965._000001.MiniNtuple.root'
p505
aS'root://fax.mwt2.org:1094//pnfs/uchicago.edu/atlaslocalgroupdisk/rucio/user/schae/30/39/user.schae.15675965._000002.MiniNtuple.root'
p506
aS'root://fax.mwt2.org:1094//pnfs/uchicago.edu/atlaslocalgroupdisk/rucio/user/schae/62/46/user.schae.15675965._000003.MiniNtuple.root'
p507
asS'user.schae.v15Loose.364176.Sherpa_221_NNPDF30NNLO_Wenu_MAXHTPTV140_280_CVetoBVeto.e5340_s3126_r9364_p3575_MiniNtuple.root'
p508
(lp509
S'root://fax.mwt2.org:1094//pnfs/uchicago.edu/atlaslocalgroupdisk/rucio/user/schae/a3/61/user.schae.15675936._000001.MiniNtuple.root'
p510
aS'root://fax.mwt2.org:1094//pnfs/uchicago.edu/atlaslocalgroupdisk/rucio/user/schae/13/84/user.schae.15675936._000002.MiniNtuple.root'
p511
aS'root://fax.mwt2.org:1094//pnfs/uchicago.edu/atlaslocalgroupdisk/rucio/user/schae/b8/74/user.schae.15675936._000003.MiniNtuple.root'
p512
asS'user.schae.v15Loose.364193.Sherpa_221_NNPDF30NNLO_Wtaunu_MAXHTPTV280_500_CVetoBVeto.e5340_s3126_r9364_p3575_MiniNtuple.root'
p513
(lp514
S'root://fax.mwt2.org:1094//pnfs/uchicago.edu/atlaslocalgroupdisk/rucio/user/schae/6a/34/user.schae.15676157._000001.MiniNtuple.root'
p515
aS'root://fax.mwt2.org:1094//pnfs/uchicago.edu/atlaslocalgroupdisk/rucio/user/schae/0a/6b/user.schae.15676157._000002.MiniNtuple.root'
p516
aS'root://fax.mwt2.org:1094//pnfs/uchicago.edu/atlaslocalgroupdisk/rucio/user/schae/d8/35/user.schae.15676157._000003.MiniNtuple.root'
p517
aS'root://fax.mwt2.org:1094//pnfs/uchicago.edu/atlaslocalgroupdisk/rucio/user/schae/67/5e/user.schae.15676157._000004.MiniNtuple.root'
p518
asS'user.schae.v15Loose.363151.MGPy8EG_N30NLO_Zee_Ht70_140_CFilterBVeto.e4866_s3126_r9364_p3575_MiniNtuple.root'
p519
(lp520
S'root://fax.mwt2.org:1094//pnfs/uchicago.edu/atlaslocalgroupdisk/rucio/user/schae/57/0f/user.schae.15686085._000001.MiniNtuple.root'
p521
asS'user.schae.v15Loose.364118.Sherpa_221_NNPDF30NNLO_Zee_MAXHTPTV70_140_CFilterBVeto.e5299_s3126_r9364_p3575_MiniNtuple.root'
p522
(lp523
S'/share/t3data2/schae/v14Loose/user.schae.v15Loose.364118.Sherpa_221_NNPDF30NNLO_Zee_MAXHTPTV70_140_CFilterBVeto.e5299_s3126_r9364_p3575_MiniNtuple.root/user.schae.15676225._000001.MiniNtuple.root'
p524
aS'/share/t3data2/schae/v14Loose/user.schae.v15Loose.364118.Sherpa_221_NNPDF30NNLO_Zee_MAXHTPTV70_140_CFilterBVeto.e5299_s3126_r9364_p3575_MiniNtuple.root/user.schae.15676225._000002.MiniNtuple.root'
p525
asS'user.schae.v15Loose.308095.Sherpa_221_NNPDF30NNLO_Znunu2jets_Min_N_TChannel.e5767_s3126_r9364_p3575_MiniNtuple.root'
p526
(lp527
S'root://fax.mwt2.org:1094//pnfs/uchicago.edu/atlaslocalgroupdisk/rucio/user/schae/57/0b/user.schae.15675864._000001.MiniNtuple.root'
p528
asS'user.schae.v15Loose.364184.Sherpa_221_NNPDF30NNLO_Wtaunu_MAXHTPTV0_70_CVetoBVeto.e5340_s3126_r9364_p3575_MiniNtuple.root'
p529
(lp530
S'root://fax.mwt2.org:1094//pnfs/uchicago.edu/atlaslocalgroupdisk/rucio/user/schae/d3/2e/user.schae.15676104._000001.MiniNtuple.root'
p531
aS'root://fax.mwt2.org:1094//pnfs/uchicago.edu/atlaslocalgroupdisk/rucio/user/schae/fd/dd/user.schae.15676104._000002.MiniNtuple.root'
p532
asS'user.schae.v15Loose.364165.Sherpa_221_NNPDF30NNLO_Wmunu_MAXHTPTV280_500_CVetoBVeto.e5340_s3126_r9364_p3575_MiniNtuple.root'
p533
(lp534
S'root://fax.mwt2.org:1094//pnfs/uchicago.edu/atlaslocalgroupdisk/rucio/user/schae/14/d8/user.schae.15676060._000001.MiniNtuple.root'
p535
aS'root://fax.mwt2.org:1094//pnfs/uchicago.edu/atlaslocalgroupdisk/rucio/user/schae/ed/e2/user.schae.15676060._000002.MiniNtuple.root'
p536
aS'root://fax.mwt2.org:1094//pnfs/uchicago.edu/atlaslocalgroupdisk/rucio/user/schae/54/4d/user.schae.15676060._000003.MiniNtuple.root'
p537
asS'user.schae.v15Loose.364187.Sherpa_221_NNPDF30NNLO_Wtaunu_MAXHTPTV70_140_CVetoBVeto.e5340_s3126_r9364_p3575_MiniNtuple.root'
p538
(lp539
S'root://fax.mwt2.org:1094//pnfs/uchicago.edu/atlaslocalgroupdisk/rucio/user/schae/bd/63/user.schae.15676122._000001.MiniNtuple.root'
p540
aS'root://fax.mwt2.org:1094//pnfs/uchicago.edu/atlaslocalgroupdisk/rucio/user/schae/50/28/user.schae.15676122._000002.MiniNtuple.root'
p541
aS'root://fax.mwt2.org:1094//pnfs/uchicago.edu/atlaslocalgroupdisk/rucio/user/schae/51/2b/user.schae.15676122._000003.MiniNtuple.root'
p542
asS'user.schae.v15Loose.364166.Sherpa_221_NNPDF30NNLO_Wmunu_MAXHTPTV280_500_CFilterBVeto.e5340_s3126_r9364_p3575_MiniNtuple.root'
p543
(lp544
S'root://fax.mwt2.org:1094//pnfs/uchicago.edu/atlaslocalgroupdisk/rucio/user/schae/0d/e6/user.schae.15676069._000001.MiniNtuple.root'
p545
aS'root://fax.mwt2.org:1094//pnfs/uchicago.edu/atlaslocalgroupdisk/rucio/user/schae/f4/ef/user.schae.15676069._000002.MiniNtuple.root'
p546
asS'user.schae.v15Loose.364158.Sherpa_221_NNPDF30NNLO_Wmunu_MAXHTPTV0_70_BFilter.e5340_s3126_r9364_p3575_MiniNtuple.root'
p547
(lp548
S'root://fax.mwt2.org:1094//pnfs/uchicago.edu/atlaslocalgroupdisk/rucio/user/schae/b8/d8/user.schae.15676010._000001.MiniNtuple.root'
p549
aS'root://fax.mwt2.org:1094//pnfs/uchicago.edu/atlaslocalgroupdisk/rucio/user/schae/b3/38/user.schae.15676010._000002.MiniNtuple.root'
p550
asS'user.schae.v15Loose.364146.Sherpa_221_NNPDF30NNLO_Znunu_MAXHTPTV70_140_CFilterBVeto.e5308_s3126_r9364_p3575_MiniNtuple.root'
p551
(lp552
S'root://fax.mwt2.org:1094//pnfs/uchicago.edu/atlaslocalgroupdisk/rucio/user/schae/b6/f6/user.schae.15676592._000001.MiniNtuple.root'
p553
aS'root://fax.mwt2.org:1094//pnfs/uchicago.edu/atlaslocalgroupdisk/rucio/user/schae/a1/41/user.schae.15676592._000002.MiniNtuple.root'
p554
asS'user.schae.v15Loose.364169.Sherpa_221_NNPDF30NNLO_Wmunu_MAXHTPTV1000_E_CMS.e5340_s3126_r9364_p3575_MiniNtuple.root'
p555
(lp556
S'root://fax.mwt2.org:1094//pnfs/uchicago.edu/atlaslocalgroupdisk/rucio/user/schae/a9/75/user.schae.15676099._000001.MiniNtuple.root'
p557
aS'root://fax.mwt2.org:1094//pnfs/uchicago.edu/atlaslocalgroupdisk/rucio/user/schae/34/06/user.schae.15676099._000002.MiniNtuple.root'
p558
aS'root://fax.mwt2.org:1094//pnfs/uchicago.edu/atlaslocalgroupdisk/rucio/user/schae/49/c2/user.schae.15676099._000003.MiniNtuple.root'
p559
asS'user.schae.v15Loose.363656.MGPy8EG_N30NLO_Wtaunu_Ht140_280_BFilter.e4944_s3126_r9364_p3575_MiniNtuple.root'
p560
(lp561
S'/share/t3data2/schae/v14Loose/user.schae.v15Loose.363656.MGPy8EG_N30NLO_Wtaunu_Ht140_280_BFilter.e4944_s3126_r9364_p3575_MiniNtuple.root/user.schae.15686077._000001.MiniNtuple.root'
p562
aS'/share/t3data2/schae/v14Loose/user.schae.v15Loose.363656.MGPy8EG_N30NLO_Wtaunu_Ht140_280_BFilter.e4944_s3126_r9364_p3575_MiniNtuple.root/user.schae.15686077._000002.MiniNtuple.root'
p563
asS'user.schae.v15Loose.308094.Sherpa_221_NNPDF30NNLO_Ztautau2jets_Min_N_TChannel.e5767_s3126_r9364_p3575_MiniNtuple.root'
p564
(lp565
S'root://fax.mwt2.org:1094//pnfs/uchicago.edu/atlaslocalgroupdisk/rucio/user/schae/c3/f3/user.schae.15675856._000001.MiniNtuple.root'
p566
asS'user.schae.v15Loose.364186.Sherpa_221_NNPDF30NNLO_Wtaunu_MAXHTPTV0_70_BFilter.e5340_s3126_r9364_p3575_MiniNtuple.root'
p567
(lp568
S'root://fax.mwt2.org:1094//pnfs/uchicago.edu/atlaslocalgroupdisk/rucio/user/schae/37/6a/user.schae.15676115._000001.MiniNtuple.root'
p569
aS'root://fax.mwt2.org:1094//pnfs/uchicago.edu/atlaslocalgroupdisk/rucio/user/schae/ef/6d/user.schae.15676115._000002.MiniNtuple.root'
p570
asS'user.schae.v15Loose.364159.Sherpa_221_NNPDF30NNLO_Wmunu_MAXHTPTV70_140_CVetoBVeto.e5340_s3126_r9364_p3575_MiniNtuple.root'
p571
(lp572
S'root://fax.mwt2.org:1094//pnfs/uchicago.edu/atlaslocalgroupdisk/rucio/user/schae/d7/cc/user.schae.15676020._000001.MiniNtuple.root'
p573
aS'root://fax.mwt2.org:1094//pnfs/uchicago.edu/atlaslocalgroupdisk/rucio/user/schae/e8/75/user.schae.15676020._000002.MiniNtuple.root'
p574
asS'user.schae.v15Loose.364151.Sherpa_221_NNPDF30NNLO_Znunu_MAXHTPTV280_500_CVetoBVeto.e5308_s3126_r9364_p3575_MiniNtuple.root'
p575
(lp576
S'root://fax.mwt2.org:1094//pnfs/uchicago.edu/atlaslocalgroupdisk/rucio/user/schae/3a/cb/user.schae.15676666._000001.MiniNtuple.root'
p577
aS'root://fax.mwt2.org:1094//pnfs/uchicago.edu/atlaslocalgroupdisk/rucio/user/schae/78/b0/user.schae.15676666._000002.MiniNtuple.root'
p578
aS'root://fax.mwt2.org:1094//pnfs/uchicago.edu/atlaslocalgroupdisk/rucio/user/schae/f8/6e/user.schae.15676666._000003.MiniNtuple.root'
p579
asS'user.schae.v14Loose.00284427.physics_Main.r9264_p3083_p3576_MiniNtuple.root'
p580
(lp581
S'/share/t3data2/schae/v14Loose/user.schae.v14Loose.00284427.physics_Main.r9264_p3083_p3576_MiniNtuple.root/user.schae.15632462._000001.MiniNtuple.root'
p582
asS'user.schae.v15Loose.363356.Sherpa_221_NNPDF30NNLO_ZqqZll.e5525_s3126_r9364_p3575_MiniNtuple.root'
p583
(lp584
S'root://fax.mwt2.org:1094//pnfs/uchicago.edu/atlaslocalgroupdisk/rucio/user/schae/ed/21/user.schae.15675801._000001.MiniNtuple.root'
p585
aS'root://fax.mwt2.org:1094//pnfs/uchicago.edu/atlaslocalgroupdisk/rucio/user/schae/a0/23/user.schae.15675801._000002.MiniNtuple.root'
p586
asS'user.schae.v15Loose.364170.Sherpa_221_NNPDF30NNLO_Wenu_MAXHTPTV0_70_CVetoBVeto.e5340_s3126_r9364_p3575_MiniNtuple.root'
p587
(lp588
S'root://fax.mwt2.org:1094//pnfs/uchicago.edu/atlaslocalgroupdisk/rucio/user/schae/b1/5e/user.schae.15675894._000001.MiniNtuple.root'
p589
aS'root://fax.mwt2.org:1094//pnfs/uchicago.edu/atlaslocalgroupdisk/rucio/user/schae/56/04/user.schae.15675894._000002.MiniNtuple.root'
p590
asS'user.schae.v15Loose.364110.Sherpa_221_NNPDF30NNLO_Zmumu_MAXHTPTV280_500_CFilterBVeto.e5271_s3126_r9364_p3575_MiniNtuple.root'
p591
(lp592
S'root://fax.mwt2.org:1094//pnfs/uchicago.edu/atlaslocalgroupdisk/rucio/user/schae/99/bf/user.schae.15676410._000001.MiniNtuple.root'
p593
aS'root://fax.mwt2.org:1094//pnfs/uchicago.edu/atlaslocalgroupdisk/rucio/user/schae/d8/a8/user.schae.15676410._000002.MiniNtuple.root'
p594
asS'user.schae.v15Loose.363652.MGPy8EG_N30NLO_Wtaunu_Ht70_140_CFilterBVeto.e4944_e5984_s3126_r9364_r9315_p3575_MiniNtuple.root'
p595
(lp596
S'root://fax.mwt2.org:1094//pnfs/uchicago.edu/atlaslocalgroupdisk/rucio/user/schae/ec/25/user.schae.15686186._000001.MiniNtuple.root'
p597
aS'root://fax.mwt2.org:1094//pnfs/uchicago.edu/atlaslocalgroupdisk/rucio/user/schae/f8/6a/user.schae.15686186._000002.MiniNtuple.root'
p598
asS'user.schae.v15Loose.364175.Sherpa_221_NNPDF30NNLO_Wenu_MAXHTPTV70_140_BFilter.e5340_s3126_r9364_p3575_MiniNtuple.root'
p599
(lp600
S'root://fax.mwt2.org:1094//pnfs/uchicago.edu/atlaslocalgroupdisk/rucio/user/schae/89/f6/user.schae.15675924._000001.MiniNtuple.root'
p601
aS'root://fax.mwt2.org:1094//pnfs/uchicago.edu/atlaslocalgroupdisk/rucio/user/schae/3f/bd/user.schae.15675924._000002.MiniNtuple.root'
p602
asS'user.schae.v15Loose.410470.PhPy8EG_A14_ttbar_hdamp258p75_nonallhad.e6337_s3126_r9364_p3575_MiniNtuple.root'
p603
(lp604
S'/share/t3data2/schae/v14Loose/user.schae.v15Loose.410470.PhPy8EG_A14_ttbar_hdamp258p75_nonallhad.e6337_s3126_r9364_p3575_MiniNtuple.root/user.schae.15676722._000001.MiniNtuple.root'
p605
aS'/share/t3data2/schae/v14Loose/user.schae.v15Loose.410470.PhPy8EG_A14_ttbar_hdamp258p75_nonallhad.e6337_s3126_r9364_p3575_MiniNtuple.root/user.schae.15676722._000002.MiniNtuple.root'
p606
aS'/share/t3data2/schae/v14Loose/user.schae.v15Loose.410470.PhPy8EG_A14_ttbar_hdamp258p75_nonallhad.e6337_s3126_r9364_p3575_MiniNtuple.root/user.schae.15676722._000003.MiniNtuple.root'
p607
aS'/share/t3data2/schae/v14Loose/user.schae.v15Loose.410470.PhPy8EG_A14_ttbar_hdamp258p75_nonallhad.e6337_s3126_r9364_p3575_MiniNtuple.root/user.schae.15676722._000004.MiniNtuple.root'
p608
aS'/share/t3data2/schae/v14Loose/user.schae.v15Loose.410470.PhPy8EG_A14_ttbar_hdamp258p75_nonallhad.e6337_s3126_r9364_p3575_MiniNtuple.root/user.schae.15676722._000005.MiniNtuple.root'
p609
aS'/share/t3data2/schae/v14Loose/user.schae.v15Loose.410470.PhPy8EG_A14_ttbar_hdamp258p75_nonallhad.e6337_s3126_r9364_p3575_MiniNtuple.root/user.schae.15676722._000006.MiniNtuple.root'
p610
aS'/share/t3data2/schae/v14Loose/user.schae.v15Loose.410470.PhPy8EG_A14_ttbar_hdamp258p75_nonallhad.e6337_s3126_r9364_p3575_MiniNtuple.root/user.schae.15676722._000007.MiniNtuple.root'
p611
aS'/share/t3data2/schae/v14Loose/user.schae.v15Loose.410470.PhPy8EG_A14_ttbar_hdamp258p75_nonallhad.e6337_s3126_r9364_p3575_MiniNtuple.root/user.schae.15676722._000008.MiniNtuple.root'
p612
aS'/share/t3data2/schae/v14Loose/user.schae.v15Loose.410470.PhPy8EG_A14_ttbar_hdamp258p75_nonallhad.e6337_s3126_r9364_p3575_MiniNtuple.root/user.schae.15676722._000009.MiniNtuple.root'
p613
asS'user.schae.v15Loose.364101.Sherpa_221_NNPDF30NNLO_Zmumu_MAXHTPTV0_70_CFilterBVeto.e5271_s3126_r9364_p3575_MiniNtuple.root'
p614
(lp615
S'root://fax.mwt2.org:1094//pnfs/uchicago.edu/atlaslocalgroupdisk/rucio/user/schae/5e/36/user.schae.15676324._000001.MiniNtuple.root'
p616
aS'root://fax.mwt2.org:1094//pnfs/uchicago.edu/atlaslocalgroupdisk/rucio/user/schae/25/62/user.schae.15676324._000002.MiniNtuple.root'
p617
as.